
target/bpfel-unknown-unknown/release/transfer_lamports.so:	file format elf64-bpf

Sections:
Idx Name          Size     VMA              Type
  0               00000000 0000000000000000 
  1 .text         00008a88 00000000000000e8 TEXT
  2 .dynsym       000000a8 0000000000008b70 
  3 .gnu.hash     00000024 0000000000008c18 
  4 .hash         00000040 0000000000008c3c 
  5 .dynstr       00000040 0000000000008c7c 
  6 .rel.dyn      00000f90 0000000000008cc0 
  7 .rodata       00000cc1 0000000000009c50 DATA
  8 .eh_frame     000000bc 000000000000a918 DATA
  9 .data.rel.ro  00000448 000000000000a9d8 DATA
 10 .dynamic      000000d0 000000000000ae20 
 11 .comment      0000006e 0000000000000000 
 12 .symtab       00004d70 0000000000000000 
 13 .shstrtab     0000007b 0000000000000000 
 14 .strtab       00005781 0000000000000000 


Disassembly of section .text:

00000000000000e8 <core::alloc::global::GlobalAlloc::alloc_zeroed::h0982ccbe0de2c688>:
      29:	bf 24 00 00 00 00 00 00	r4 = r2
      30:	79 12 00 00 00 00 00 00	r2 = *(u64 *)(r1 + 0x0)
      31:	79 11 08 00 00 00 00 00	r1 = *(u64 *)(r1 + 0x8)
      32:	0f 21 00 00 00 00 00 00	r1 += r2
      33:	79 25 00 00 00 00 00 00	r5 = *(u64 *)(r2 + 0x0)
      34:	15 05 01 00 00 00 00 00	if r5 == 0x0 goto +0x1 <LBB0_2>
      35:	bf 51 00 00 00 00 00 00	r1 = r5

0000000000000120 <LBB0_2>:
      36:	bf 15 00 00 00 00 00 00	r5 = r1
      37:	1f 45 00 00 00 00 00 00	r5 -= r4
      38:	b7 00 00 00 00 00 00 00	r0 = 0x0
      39:	b7 07 00 00 01 00 00 00	r7 = 0x1
      40:	2d 15 01 00 00 00 00 00	if r5 > r1 goto +0x1 <LBB0_4>
      41:	b7 07 00 00 00 00 00 00	r7 = 0x0

0000000000000150 <LBB0_4>:
      42:	b7 06 00 00 00 00 00 00	r6 = 0x0
      43:	55 07 01 00 00 00 00 00	if r7 != 0x0 goto +0x1 <LBB0_6>
      44:	bf 56 00 00 00 00 00 00	r6 = r5

0000000000000168 <LBB0_6>:
      45:	87 03 00 00 00 00 00 00	r3 = -r3
      46:	5f 36 00 00 00 00 00 00	r6 &= r3
      47:	bf 21 00 00 00 00 00 00	r1 = r2
      48:	07 01 00 00 08 00 00 00	r1 += 0x8
      49:	2d 61 07 00 00 00 00 00	if r1 > r6 goto +0x7 <LBB0_9>
      50:	7b 62 00 00 00 00 00 00	*(u64 *)(r2 + 0x0) = r6
      51:	15 06 05 00 00 00 00 00	if r6 == 0x0 goto +0x5 <LBB0_9>
      52:	bf 61 00 00 00 00 00 00	r1 = r6
      53:	b7 02 00 00 00 00 00 00	r2 = 0x0
      54:	bf 43 00 00 00 00 00 00	r3 = r4
      55:	85 10 00 00 e6 10 00 00	call 0x10e6
      56:	bf 60 00 00 00 00 00 00	r0 = r6

00000000000001c8 <LBB0_9>:
      57:	95 00 00 00 00 00 00 00	exit

00000000000001d0 <core::alloc::global::GlobalAlloc::realloc::ha2b54135af60d612>:
      58:	79 17 00 00 00 00 00 00	r7 = *(u64 *)(r1 + 0x0)
      59:	79 11 08 00 00 00 00 00	r1 = *(u64 *)(r1 + 0x8)
      60:	0f 71 00 00 00 00 00 00	r1 += r7
      61:	79 70 00 00 00 00 00 00	r0 = *(u64 *)(r7 + 0x0)
      62:	15 00 01 00 00 00 00 00	if r0 == 0x0 goto +0x1 <LBB1_2>
      63:	bf 01 00 00 00 00 00 00	r1 = r0

0000000000000200 <LBB1_2>:
      64:	bf 18 00 00 00 00 00 00	r8 = r1
      65:	1f 58 00 00 00 00 00 00	r8 -= r5
      66:	b7 00 00 00 00 00 00 00	r0 = 0x0
      67:	b7 09 00 00 01 00 00 00	r9 = 0x1
      68:	2d 18 01 00 00 00 00 00	if r8 > r1 goto +0x1 <LBB1_4>
      69:	b7 09 00 00 00 00 00 00	r9 = 0x0

0000000000000230 <LBB1_4>:
      70:	b7 06 00 00 00 00 00 00	r6 = 0x0
      71:	55 09 01 00 00 00 00 00	if r9 != 0x0 goto +0x1 <LBB1_6>
      72:	bf 86 00 00 00 00 00 00	r6 = r8

0000000000000248 <LBB1_6>:
      73:	87 04 00 00 00 00 00 00	r4 = -r4
      74:	5f 46 00 00 00 00 00 00	r6 &= r4
      75:	bf 71 00 00 00 00 00 00	r1 = r7
      76:	07 01 00 00 08 00 00 00	r1 += 0x8
      77:	2d 61 08 00 00 00 00 00	if r1 > r6 goto +0x8 <LBB1_11>
      78:	7b 67 00 00 00 00 00 00	*(u64 *)(r7 + 0x0) = r6
      79:	15 06 06 00 00 00 00 00	if r6 == 0x0 goto +0x6 <LBB1_11>
      80:	2d 53 01 00 00 00 00 00	if r3 > r5 goto +0x1 <LBB1_10>
      81:	bf 35 00 00 00 00 00 00	r5 = r3

0000000000000290 <LBB1_10>:
      82:	bf 61 00 00 00 00 00 00	r1 = r6
      83:	bf 53 00 00 00 00 00 00	r3 = r5
      84:	85 10 00 00 a4 10 00 00	call 0x10a4
      85:	bf 60 00 00 00 00 00 00	r0 = r6

00000000000002b0 <LBB1_11>:
      86:	95 00 00 00 00 00 00 00	exit

00000000000002b8 <_$LT$T$u20$as$u20$core..convert..From$LT$T$GT$$GT$::from::h545584c525bb2666>:
      87:	79 23 18 00 00 00 00 00	r3 = *(u64 *)(r2 + 0x18)
      88:	7b 31 18 00 00 00 00 00	*(u64 *)(r1 + 0x18) = r3
      89:	79 23 10 00 00 00 00 00	r3 = *(u64 *)(r2 + 0x10)
      90:	7b 31 10 00 00 00 00 00	*(u64 *)(r1 + 0x10) = r3
      91:	79 23 08 00 00 00 00 00	r3 = *(u64 *)(r2 + 0x8)
      92:	7b 31 08 00 00 00 00 00	*(u64 *)(r1 + 0x8) = r3
      93:	79 22 00 00 00 00 00 00	r2 = *(u64 *)(r2 + 0x0)
      94:	7b 21 00 00 00 00 00 00	*(u64 *)(r1 + 0x0) = r2
      95:	95 00 00 00 00 00 00 00	exit

0000000000000300 <_$LT$T$u20$as$u20$core..convert..Into$LT$U$GT$$GT$::into::h62cb2996f7befa09>:
      96:	79 12 18 00 00 00 00 00	r2 = *(u64 *)(r1 + 0x18)
      97:	7b 2a f8 ff 00 00 00 00	*(u64 *)(r10 - 0x8) = r2
      98:	79 12 10 00 00 00 00 00	r2 = *(u64 *)(r1 + 0x10)
      99:	7b 2a f0 ff 00 00 00 00	*(u64 *)(r10 - 0x10) = r2
     100:	79 12 08 00 00 00 00 00	r2 = *(u64 *)(r1 + 0x8)
     101:	7b 2a e8 ff 00 00 00 00	*(u64 *)(r10 - 0x18) = r2
     102:	79 11 00 00 00 00 00 00	r1 = *(u64 *)(r1 + 0x0)
     103:	7b 1a e0 ff 00 00 00 00	*(u64 *)(r10 - 0x20) = r1
     104:	bf a1 00 00 00 00 00 00	r1 = r10
     105:	07 01 00 00 e0 ff ff ff	r1 += -0x20
     106:	85 10 00 00 9d 03 00 00	call 0x39d
     107:	95 00 00 00 00 00 00 00	exit

0000000000000360 <core::cell::Cell$LT$T$GT$::replace::hf89b8af1359874d7>:
     108:	79 10 00 00 00 00 00 00	r0 = *(u64 *)(r1 + 0x0)
     109:	7b 21 00 00 00 00 00 00	*(u64 *)(r1 + 0x0) = r2
     110:	95 00 00 00 00 00 00 00	exit

0000000000000378 <core::fmt::ArgumentV1::new::h93c90b617ede6d2a>:
     111:	7b 31 08 00 00 00 00 00	*(u64 *)(r1 + 0x8) = r3
     112:	7b 21 00 00 00 00 00 00	*(u64 *)(r1 + 0x0) = r2
     113:	95 00 00 00 00 00 00 00	exit

0000000000000390 <_$LT$alloc..rc..Rc$LT$T$GT$$u20$as$u20$core..ops..drop..Drop$GT$::drop::h156c95538f140d2b>:
     114:	bf 16 00 00 00 00 00 00	r6 = r1
     115:	79 61 00 00 00 00 00 00	r1 = *(u64 *)(r6 + 0x0)
     116:	79 12 00 00 00 00 00 00	r2 = *(u64 *)(r1 + 0x0)
     117:	07 02 00 00 ff ff ff ff	r2 += -0x1
     118:	85 10 00 00 f5 ff ff ff	call -0xb
     119:	79 61 00 00 00 00 00 00	r1 = *(u64 *)(r6 + 0x0)
     120:	79 12 00 00 00 00 00 00	r2 = *(u64 *)(r1 + 0x0)
     121:	55 02 0a 00 00 00 00 00	if r2 != 0x0 goto +0xa <LBB0_3>
     122:	79 12 08 00 00 00 00 00	r2 = *(u64 *)(r1 + 0x8)
     123:	07 01 00 00 08 00 00 00	r1 += 0x8
     124:	07 02 00 00 ff ff ff ff	r2 += -0x1
     125:	85 10 00 00 ee ff ff ff	call -0x12
     126:	79 61 00 00 00 00 00 00	r1 = *(u64 *)(r6 + 0x0)
     127:	79 12 08 00 00 00 00 00	r2 = *(u64 *)(r1 + 0x8)
     128:	55 02 03 00 00 00 00 00	if r2 != 0x0 goto +0x3 <LBB0_3>
     129:	b7 02 00 00 28 00 00 00	r2 = 0x28
     130:	b7 03 00 00 08 00 00 00	r3 = 0x8
     131:	85 10 00 00 37 01 00 00	call 0x137

0000000000000420 <LBB0_3>:
     132:	95 00 00 00 00 00 00 00	exit

0000000000000428 <_$LT$alloc..rc..Rc$LT$T$GT$$u20$as$u20$core..ops..drop..Drop$GT$::drop::h1bb671798b1ed7e4>:
     133:	bf 16 00 00 00 00 00 00	r6 = r1
     134:	79 61 00 00 00 00 00 00	r1 = *(u64 *)(r6 + 0x0)
     135:	79 12 00 00 00 00 00 00	r2 = *(u64 *)(r1 + 0x0)
     136:	07 02 00 00 ff ff ff ff	r2 += -0x1
     137:	85 10 00 00 e2 ff ff ff	call -0x1e
     138:	79 61 00 00 00 00 00 00	r1 = *(u64 *)(r6 + 0x0)
     139:	79 12 00 00 00 00 00 00	r2 = *(u64 *)(r1 + 0x0)
     140:	55 02 0a 00 00 00 00 00	if r2 != 0x0 goto +0xa <LBB1_3>
     141:	79 12 08 00 00 00 00 00	r2 = *(u64 *)(r1 + 0x8)
     142:	07 01 00 00 08 00 00 00	r1 += 0x8
     143:	07 02 00 00 ff ff ff ff	r2 += -0x1
     144:	85 10 00 00 db ff ff ff	call -0x25
     145:	79 61 00 00 00 00 00 00	r1 = *(u64 *)(r6 + 0x0)
     146:	79 12 08 00 00 00 00 00	r2 = *(u64 *)(r1 + 0x8)
     147:	55 02 03 00 00 00 00 00	if r2 != 0x0 goto +0x3 <LBB1_3>
     148:	b7 02 00 00 20 00 00 00	r2 = 0x20
     149:	b7 03 00 00 08 00 00 00	r3 = 0x8
     150:	85 10 00 00 24 01 00 00	call 0x124

00000000000004b8 <LBB1_3>:
     151:	95 00 00 00 00 00 00 00	exit

00000000000004c0 <solana_program::account_info::next_account_info::hafccc7cadb3aa820>:
     152:	79 23 00 00 00 00 00 00	r3 = *(u64 *)(r2 + 0x0)
     153:	79 24 08 00 00 00 00 00	r4 = *(u64 *)(r2 + 0x8)
     154:	5d 43 04 00 00 00 00 00	if r3 != r4 goto +0x4 <LBB0_2>
     155:	b7 02 00 00 0a 00 00 00	r2 = 0xa
     156:	63 21 08 00 00 00 00 00	*(u32 *)(r1 + 0x8) = r2
     157:	b7 02 00 00 01 00 00 00	r2 = 0x1
     158:	05 00 05 00 00 00 00 00	goto +0x5 <LBB0_3>

00000000000004f8 <LBB0_2>:
     159:	bf 34 00 00 00 00 00 00	r4 = r3
     160:	07 04 00 00 30 00 00 00	r4 += 0x30
     161:	7b 42 00 00 00 00 00 00	*(u64 *)(r2 + 0x0) = r4
     162:	7b 31 08 00 00 00 00 00	*(u64 *)(r1 + 0x8) = r3
     163:	b7 02 00 00 00 00 00 00	r2 = 0x0

0000000000000520 <LBB0_3>:
     164:	bf a3 00 00 00 00 00 00	r3 = r10
     165:	07 03 00 00 e4 ff ff ff	r3 += -0x1c
     166:	7b 21 00 00 00 00 00 00	*(u64 *)(r1 + 0x0) = r2
     167:	95 00 00 00 00 00 00 00	exit

0000000000000540 <_$LT$$RF$T$u20$as$u20$core..fmt..Display$GT$::fmt::h9f4fd7e85059429f>:
     168:	79 11 00 00 00 00 00 00	r1 = *(u64 *)(r1 + 0x0)
     169:	85 10 00 00 0b 06 00 00	call 0x60b
     170:	95 00 00 00 00 00 00 00	exit

0000000000000558 <_$LT$T$u20$as$u20$core..convert..Into$LT$U$GT$$GT$::into::ha11a3fc13d05d198>:
     171:	bf 10 00 00 00 00 00 00	r0 = r1
     172:	95 00 00 00 00 00 00 00	exit

0000000000000568 <_$LT$alloc..vec..Vec$LT$T$C$A$GT$$u20$as$u20$core..ops..drop..Drop$GT$::drop::h32ddb61705ae7561>:
     173:	79 17 10 00 00 00 00 00	r7 = *(u64 *)(r1 + 0x10)
     174:	15 07 0b 00 00 00 00 00	if r7 == 0x0 goto +0xb <LBB0_3>
     175:	79 16 00 00 00 00 00 00	r6 = *(u64 *)(r1 + 0x0)
     176:	27 07 00 00 30 00 00 00	r7 *= 0x30
     177:	07 06 00 00 10 00 00 00	r6 += 0x10

0000000000000590 <LBB0_2>:
     178:	bf 61 00 00 00 00 00 00	r1 = r6
     179:	07 01 00 00 f8 ff ff ff	r1 += -0x8
     180:	85 10 00 00 d0 ff ff ff	call -0x30
     181:	bf 61 00 00 00 00 00 00	r1 = r6
     182:	85 10 00 00 bb ff ff ff	call -0x45
     183:	07 06 00 00 30 00 00 00	r6 += 0x30
     184:	07 07 00 00 d0 ff ff ff	r7 += -0x30
     185:	55 07 f8 ff 00 00 00 00	if r7 != 0x0 goto -0x8 <LBB0_2>

00000000000005d0 <LBB0_3>:
     186:	95 00 00 00 00 00 00 00	exit

00000000000005d8 <_$LT$alloc..vec..Vec$LT$T$C$A$GT$$u20$as$u20$core..ops..drop..Drop$GT$::drop::hc49da24ecfc4276f>:
     187:	95 00 00 00 00 00 00 00	exit

00000000000005e0 <_$LT$alloc..vec..Vec$LT$T$C$A$GT$$u20$as$u20$core..ops..deref..Deref$GT$::deref::hb8defb7890561bd5>:
     188:	79 23 10 00 00 00 00 00	r3 = *(u64 *)(r2 + 0x10)
     189:	7b 31 08 00 00 00 00 00	*(u64 *)(r1 + 0x8) = r3
     190:	79 22 00 00 00 00 00 00	r2 = *(u64 *)(r2 + 0x0)
     191:	7b 21 00 00 00 00 00 00	*(u64 *)(r1 + 0x0) = r2
     192:	95 00 00 00 00 00 00 00	exit

0000000000000608 <transfer_lamports::processor::process_instruction::hbb859aad1ec89c7e>:
     193:	bf 16 00 00 00 00 00 00	r6 = r1
     194:	7b 3a b0 ff 00 00 00 00	*(u64 *)(r10 - 0x50) = r3
     195:	27 04 00 00 30 00 00 00	r4 *= 0x30
     196:	0f 43 00 00 00 00 00 00	r3 += r4
     197:	7b 3a b8 ff 00 00 00 00	*(u64 *)(r10 - 0x48) = r3
     198:	bf a1 00 00 00 00 00 00	r1 = r10
     199:	07 01 00 00 d8 ff ff ff	r1 += -0x28
     200:	bf a2 00 00 00 00 00 00	r2 = r10
     201:	07 02 00 00 b0 ff ff ff	r2 += -0x50
     202:	85 10 00 00 cd ff ff ff	call -0x33
     203:	79 a1 e8 ff 00 00 00 00	r1 = *(u64 *)(r10 - 0x18)
     204:	7b 1a c0 ff 00 00 00 00	*(u64 *)(r10 - 0x40) = r1
     205:	79 a1 f0 ff 00 00 00 00	r1 = *(u64 *)(r10 - 0x10)
     206:	7b 1a c8 ff 00 00 00 00	*(u64 *)(r10 - 0x38) = r1
     207:	79 a1 f8 ff 00 00 00 00	r1 = *(u64 *)(r10 - 0x8)
     208:	7b 1a d0 ff 00 00 00 00	*(u64 *)(r10 - 0x30) = r1
     209:	79 a8 e0 ff 00 00 00 00	r8 = *(u64 *)(r10 - 0x20)
     210:	79 a1 d8 ff 00 00 00 00	r1 = *(u64 *)(r10 - 0x28)
     211:	15 01 11 00 01 00 00 00	if r1 == 0x1 goto +0x11 <LBB0_2>
     212:	bf a1 00 00 00 00 00 00	r1 = r10
     213:	07 01 00 00 d8 ff ff ff	r1 += -0x28
     214:	bf a2 00 00 00 00 00 00	r2 = r10
     215:	07 02 00 00 b0 ff ff ff	r2 += -0x50
     216:	85 10 00 00 bf ff ff ff	call -0x41
     217:	79 a1 e8 ff 00 00 00 00	r1 = *(u64 *)(r10 - 0x18)
     218:	7b 1a c0 ff 00 00 00 00	*(u64 *)(r10 - 0x40) = r1
     219:	79 a1 f0 ff 00 00 00 00	r1 = *(u64 *)(r10 - 0x10)
     220:	7b 1a c8 ff 00 00 00 00	*(u64 *)(r10 - 0x38) = r1
     221:	79 a1 f8 ff 00 00 00 00	r1 = *(u64 *)(r10 - 0x8)
     222:	7b 1a d0 ff 00 00 00 00	*(u64 *)(r10 - 0x30) = r1
     223:	79 a7 e0 ff 00 00 00 00	r7 = *(u64 *)(r10 - 0x20)
     224:	79 a1 d8 ff 00 00 00 00	r1 = *(u64 *)(r10 - 0x28)
     225:	15 01 01 00 01 00 00 00	if r1 == 0x1 goto +0x1 <LBB0_5>
     226:	05 00 09 00 00 00 00 00	goto +0x9 <LBB0_4>

0000000000000718 <LBB0_5>:
     227:	7b 7a d8 ff 00 00 00 00	*(u64 *)(r10 - 0x28) = r7
     228:	05 00 01 00 00 00 00 00	goto +0x1 <LBB0_3>

0000000000000728 <LBB0_2>:
     229:	7b 8a d8 ff 00 00 00 00	*(u64 *)(r10 - 0x28) = r8

0000000000000730 <LBB0_3>:
     230:	79 a1 c0 ff 00 00 00 00	r1 = *(u64 *)(r10 - 0x40)
     231:	7b 1a e0 ff 00 00 00 00	*(u64 *)(r10 - 0x20) = r1
     232:	79 a1 c8 ff 00 00 00 00	r1 = *(u64 *)(r10 - 0x38)
     233:	7b 1a e8 ff 00 00 00 00	*(u64 *)(r10 - 0x18) = r1
     234:	79 a1 d0 ff 00 00 00 00	r1 = *(u64 *)(r10 - 0x30)
     235:	05 00 12 00 00 00 00 00	goto +0x12 <LBB0_9>

0000000000000760 <LBB0_4>:
     236:	bf a1 00 00 00 00 00 00	r1 = r10
     237:	07 01 00 00 d8 ff ff ff	r1 += -0x28
     238:	bf 82 00 00 00 00 00 00	r2 = r8
     239:	85 10 00 00 c4 01 00 00	call 0x1c4
     240:	79 a1 f0 ff 00 00 00 00	r1 = *(u64 *)(r10 - 0x10)
     241:	7b 1a c0 ff 00 00 00 00	*(u64 *)(r10 - 0x40) = r1
     242:	79 a1 f8 ff 00 00 00 00	r1 = *(u64 *)(r10 - 0x8)
     243:	7b 1a c8 ff 00 00 00 00	*(u64 *)(r10 - 0x38) = r1
     244:	79 a1 e8 ff 00 00 00 00	r1 = *(u64 *)(r10 - 0x18)
     245:	79 a2 e0 ff 00 00 00 00	r2 = *(u64 *)(r10 - 0x20)
     246:	79 a3 d8 ff 00 00 00 00	r3 = *(u64 *)(r10 - 0x28)
     247:	15 03 01 00 01 00 00 00	if r3 == 0x1 goto +0x1 <LBB0_8>
     248:	05 00 0b 00 00 00 00 00	goto +0xb <LBB0_6>

00000000000007c8 <LBB0_8>:
     249:	7b 1a e0 ff 00 00 00 00	*(u64 *)(r10 - 0x20) = r1
     250:	7b 2a d8 ff 00 00 00 00	*(u64 *)(r10 - 0x28) = r2
     251:	79 a1 c0 ff 00 00 00 00	r1 = *(u64 *)(r10 - 0x40)
     252:	7b 1a e8 ff 00 00 00 00	*(u64 *)(r10 - 0x18) = r1
     253:	79 a1 c8 ff 00 00 00 00	r1 = *(u64 *)(r10 - 0x38)

00000000000007f0 <LBB0_9>:
     254:	7b 1a f0 ff 00 00 00 00	*(u64 *)(r10 - 0x10) = r1
     255:	bf a2 00 00 00 00 00 00	r2 = r10
     256:	07 02 00 00 d8 ff ff ff	r2 += -0x28
     257:	bf 61 00 00 00 00 00 00	r1 = r6
     258:	85 10 00 00 54 ff ff ff	call -0xac

0000000000000818 <LBB0_10>:
     259:	95 00 00 00 00 00 00 00	exit

0000000000000820 <LBB0_6>:
     260:	79 22 00 00 00 00 00 00	r2 = *(u64 *)(r2 + 0x0)
     261:	79 23 00 00 00 00 00 00	r3 = *(u64 *)(r2 + 0x0)
     262:	07 03 00 00 fb ff ff ff	r3 += -0x5
     263:	7b 32 00 00 00 00 00 00	*(u64 *)(r2 + 0x0) = r3
     264:	79 12 00 00 00 00 00 00	r2 = *(u64 *)(r1 + 0x0)
     265:	07 02 00 00 01 00 00 00	r2 += 0x1
     266:	85 10 00 00 61 ff ff ff	call -0x9f
     267:	bf a1 00 00 00 00 00 00	r1 = r10
     268:	07 01 00 00 d8 ff ff ff	r1 += -0x28
     269:	bf 72 00 00 00 00 00 00	r2 = r7
     270:	85 10 00 00 a5 01 00 00	call 0x1a5
     271:	79 a1 f0 ff 00 00 00 00	r1 = *(u64 *)(r10 - 0x10)
     272:	7b 1a c0 ff 00 00 00 00	*(u64 *)(r10 - 0x40) = r1
     273:	79 a1 f8 ff 00 00 00 00	r1 = *(u64 *)(r10 - 0x8)
     274:	7b 1a c8 ff 00 00 00 00	*(u64 *)(r10 - 0x38) = r1
     275:	79 a1 e8 ff 00 00 00 00	r1 = *(u64 *)(r10 - 0x18)
     276:	79 a2 e0 ff 00 00 00 00	r2 = *(u64 *)(r10 - 0x20)
     277:	79 a3 d8 ff 00 00 00 00	r3 = *(u64 *)(r10 - 0x28)
     278:	15 03 e2 ff 01 00 00 00	if r3 == 0x1 goto -0x1e <LBB0_8>
     279:	79 22 00 00 00 00 00 00	r2 = *(u64 *)(r2 + 0x0)
     280:	79 23 00 00 00 00 00 00	r3 = *(u64 *)(r2 + 0x0)
     281:	07 03 00 00 05 00 00 00	r3 += 0x5
     282:	7b 32 00 00 00 00 00 00	*(u64 *)(r2 + 0x0) = r3
     283:	79 12 00 00 00 00 00 00	r2 = *(u64 *)(r1 + 0x0)
     284:	07 02 00 00 01 00 00 00	r2 += 0x1
     285:	85 10 00 00 4e ff ff ff	call -0xb2
     286:	b7 01 00 00 12 00 00 00	r1 = 0x12
     287:	63 16 00 00 00 00 00 00	*(u32 *)(r6 + 0x0) = r1
     288:	05 00 e2 ff 00 00 00 00	goto -0x1e <LBB0_10>

0000000000000908 <_$LT$alloc..raw_vec..RawVec$LT$T$C$A$GT$$u20$as$u20$core..ops..drop..Drop$GT$::drop::h1b95db46fac6d900>:
     289:	79 16 08 00 00 00 00 00	r6 = *(u64 *)(r1 + 0x8)
     290:	15 06 08 00 00 00 00 00	if r6 == 0x0 goto +0x8 <LBB0_3>
     291:	79 11 00 00 00 00 00 00	r1 = *(u64 *)(r1 + 0x0)
     292:	85 10 00 00 86 ff ff ff	call -0x7a
     293:	27 06 00 00 30 00 00 00	r6 *= 0x30
     294:	15 06 04 00 00 00 00 00	if r6 == 0x0 goto +0x4 <LBB0_3>
     295:	bf 01 00 00 00 00 00 00	r1 = r0
     296:	bf 62 00 00 00 00 00 00	r2 = r6
     297:	b7 03 00 00 08 00 00 00	r3 = 0x8
     298:	85 10 00 00 90 00 00 00	call 0x90

0000000000000958 <LBB0_3>:
     299:	95 00 00 00 00 00 00 00	exit

0000000000000960 <_$LT$alloc..raw_vec..RawVec$LT$T$C$A$GT$$u20$as$u20$core..ops..drop..Drop$GT$::drop::ha6e89067d1153337>:
     300:	79 16 08 00 00 00 00 00	r6 = *(u64 *)(r1 + 0x8)
     301:	15 06 06 00 00 00 00 00	if r6 == 0x0 goto +0x6 <LBB1_2>
     302:	79 11 00 00 00 00 00 00	r1 = *(u64 *)(r1 + 0x0)
     303:	85 10 00 00 7b ff ff ff	call -0x85
     304:	bf 01 00 00 00 00 00 00	r1 = r0
     305:	bf 62 00 00 00 00 00 00	r2 = r6
     306:	b7 03 00 00 01 00 00 00	r3 = 0x1
     307:	85 10 00 00 87 00 00 00	call 0x87

00000000000009a0 <LBB1_2>:
     308:	95 00 00 00 00 00 00 00	exit

00000000000009a8 <entrypoint>:
     309:	bf 12 00 00 00 00 00 00	r2 = r1
     310:	bf a1 00 00 00 00 00 00	r1 = r10
     311:	07 01 00 00 b0 ff ff ff	r1 += -0x50
     312:	85 10 00 00 8a 00 00 00	call 0x8a
     313:	79 a6 b0 ff 00 00 00 00	r6 = *(u64 *)(r10 - 0x50)
     314:	79 a1 c8 ff 00 00 00 00	r1 = *(u64 *)(r10 - 0x38)
     315:	7b 1a a8 ff 00 00 00 00	*(u64 *)(r10 - 0x58) = r1
     316:	79 a1 c0 ff 00 00 00 00	r1 = *(u64 *)(r10 - 0x40)
     317:	7b 1a a0 ff 00 00 00 00	*(u64 *)(r10 - 0x60) = r1
     318:	79 a1 b8 ff 00 00 00 00	r1 = *(u64 *)(r10 - 0x48)
     319:	7b 1a 98 ff 00 00 00 00	*(u64 *)(r10 - 0x68) = r1
     320:	79 a7 d8 ff 00 00 00 00	r7 = *(u64 *)(r10 - 0x28)
     321:	79 a8 d0 ff 00 00 00 00	r8 = *(u64 *)(r10 - 0x30)
     322:	bf a1 00 00 00 00 00 00	r1 = r10
     323:	07 01 00 00 88 ff ff ff	r1 += -0x78
     324:	bf a2 00 00 00 00 00 00	r2 = r10
     325:	07 02 00 00 98 ff ff ff	r2 += -0x68
     326:	85 10 00 00 75 ff ff ff	call -0x8b
     327:	79 a4 90 ff 00 00 00 00	r4 = *(u64 *)(r10 - 0x70)
     328:	79 a3 88 ff 00 00 00 00	r3 = *(u64 *)(r10 - 0x78)
     329:	7b 8a 00 f0 00 00 00 00	*(u64 *)(r10 - 0x1000) = r8
     330:	7b 7a 08 f0 00 00 00 00	*(u64 *)(r10 - 0xff8) = r7
     331:	bf a5 00 00 00 00 00 00	r5 = r10
     332:	bf a1 00 00 00 00 00 00	r1 = r10
     333:	07 01 00 00 e0 ff ff ff	r1 += -0x20
     334:	bf 62 00 00 00 00 00 00	r2 = r6
     335:	85 10 00 00 71 ff ff ff	call -0x8f
     336:	b7 06 00 00 00 00 00 00	r6 = 0x0
     337:	61 a1 e0 ff 00 00 00 00	r1 = *(u32 *)(r10 - 0x20)
     338:	15 01 0c 00 12 00 00 00	if r1 == 0x12 goto +0xc <LBB0_2>
     339:	79 a1 f8 ff 00 00 00 00	r1 = *(u64 *)(r10 - 0x8)
     340:	7b 1a c8 ff 00 00 00 00	*(u64 *)(r10 - 0x38) = r1
     341:	79 a1 f0 ff 00 00 00 00	r1 = *(u64 *)(r10 - 0x10)
     342:	7b 1a c0 ff 00 00 00 00	*(u64 *)(r10 - 0x40) = r1
     343:	79 a1 e8 ff 00 00 00 00	r1 = *(u64 *)(r10 - 0x18)
     344:	7b 1a b8 ff 00 00 00 00	*(u64 *)(r10 - 0x48) = r1
     345:	79 a1 e0 ff 00 00 00 00	r1 = *(u64 *)(r10 - 0x20)
     346:	7b 1a b0 ff 00 00 00 00	*(u64 *)(r10 - 0x50) = r1
     347:	bf a1 00 00 00 00 00 00	r1 = r10
     348:	07 01 00 00 b0 ff ff ff	r1 += -0x50
     349:	85 10 00 00 02 ff ff ff	call -0xfe
     350:	bf 06 00 00 00 00 00 00	r6 = r0

0000000000000af8 <LBB0_2>:
     351:	bf a7 00 00 00 00 00 00	r7 = r10
     352:	07 07 00 00 98 ff ff ff	r7 += -0x68
     353:	bf 71 00 00 00 00 00 00	r1 = r7
     354:	85 10 00 00 4a ff ff ff	call -0xb6
     355:	bf 71 00 00 00 00 00 00	r1 = r7
     356:	85 10 00 00 bc ff ff ff	call -0x44
     357:	bf 60 00 00 00 00 00 00	r0 = r6
     358:	95 00 00 00 00 00 00 00	exit

0000000000000b38 <__rg_alloc>:
     359:	18 03 00 00 00 00 00 00 00 00 00 00 03 00 00 00	r3 = 0x300000000 ll
     361:	79 33 00 00 00 00 00 00	r3 = *(u64 *)(r3 + 0x0)
     362:	18 04 00 00 00 80 00 00 00 00 00 00 03 00 00 00	r4 = 0x300008000 ll
     364:	15 03 01 00 00 00 00 00	if r3 == 0x0 goto +0x1 <LBB1_2>
     365:	bf 34 00 00 00 00 00 00	r4 = r3

0000000000000b70 <LBB1_2>:
     366:	bf 43 00 00 00 00 00 00	r3 = r4
     367:	1f 13 00 00 00 00 00 00	r3 -= r1
     368:	b7 00 00 00 00 00 00 00	r0 = 0x0
     369:	b7 05 00 00 01 00 00 00	r5 = 0x1
     370:	2d 43 01 00 00 00 00 00	if r3 > r4 goto +0x1 <LBB1_4>
     371:	b7 05 00 00 00 00 00 00	r5 = 0x0

0000000000000ba0 <LBB1_4>:
     372:	b7 01 00 00 00 00 00 00	r1 = 0x0
     373:	55 05 01 00 00 00 00 00	if r5 != 0x0 goto +0x1 <LBB1_6>
     374:	bf 31 00 00 00 00 00 00	r1 = r3

0000000000000bb8 <LBB1_6>:
     375:	87 02 00 00 00 00 00 00	r2 = -r2
     376:	5f 21 00 00 00 00 00 00	r1 &= r2
     377:	18 02 00 00 08 00 00 00 00 00 00 00 03 00 00 00	r2 = 0x300000008 ll
     379:	2d 12 04 00 00 00 00 00	if r2 > r1 goto +0x4 <LBB1_8>
     380:	18 02 00 00 00 00 00 00 00 00 00 00 03 00 00 00	r2 = 0x300000000 ll
     382:	7b 12 00 00 00 00 00 00	*(u64 *)(r2 + 0x0) = r1
     383:	bf 10 00 00 00 00 00 00	r0 = r1

0000000000000c00 <LBB1_8>:
     384:	95 00 00 00 00 00 00 00	exit

0000000000000c08 <__rg_dealloc>:
     385:	95 00 00 00 00 00 00 00	exit

0000000000000c10 <__rg_realloc>:
     386:	bf 45 00 00 00 00 00 00	r5 = r4
     387:	bf 34 00 00 00 00 00 00	r4 = r3
     388:	bf 23 00 00 00 00 00 00	r3 = r2
     389:	bf 12 00 00 00 00 00 00	r2 = r1
     390:	18 01 00 00 50 9c 00 00 00 00 00 00 00 00 00 00	r1 = 0x9c50 ll
     392:	85 10 00 00 b1 fe ff ff	call -0x14f
     393:	95 00 00 00 00 00 00 00	exit

0000000000000c50 <__rg_alloc_zeroed>:
     394:	bf 23 00 00 00 00 00 00	r3 = r2
     395:	bf 12 00 00 00 00 00 00	r2 = r1
     396:	18 01 00 00 50 9c 00 00 00 00 00 00 00 00 00 00	r1 = 0x9c50 ll
     398:	85 10 00 00 8e fe ff ff	call -0x172
     399:	95 00 00 00 00 00 00 00	exit

0000000000000c80 <custom_panic>:
     400:	7b 1a a0 ff 00 00 00 00	*(u64 *)(r10 - 0x60) = r1
     401:	bf a1 00 00 00 00 00 00	r1 = r10
     402:	07 01 00 00 90 ff ff ff	r1 += -0x70
     403:	bf a2 00 00 00 00 00 00	r2 = r10
     404:	07 02 00 00 a0 ff ff ff	r2 += -0x60
     405:	18 03 00 00 40 05 00 00 00 00 00 00 00 00 00 00	r3 = 0x540 ll
     407:	85 10 00 00 d7 fe ff ff	call -0x129
     408:	bf a1 00 00 00 00 00 00	r1 = r10
     409:	07 01 00 00 f0 ff ff ff	r1 += -0x10
     410:	7b 1a e0 ff 00 00 00 00	*(u64 *)(r10 - 0x20) = r1
     411:	b7 01 00 00 00 00 00 00	r1 = 0x0
     412:	7b 1a d0 ff 00 00 00 00	*(u64 *)(r10 - 0x30) = r1
     413:	b7 01 00 00 01 00 00 00	r1 = 0x1
     414:	7b 1a e8 ff 00 00 00 00	*(u64 *)(r10 - 0x18) = r1
     415:	7b 1a c8 ff 00 00 00 00	*(u64 *)(r10 - 0x38) = r1
     416:	18 01 00 00 d8 a9 00 00 00 00 00 00 00 00 00 00	r1 = 0xa9d8 ll
     418:	7b 1a c0 ff 00 00 00 00	*(u64 *)(r10 - 0x40) = r1
     419:	79 a1 98 ff 00 00 00 00	r1 = *(u64 *)(r10 - 0x68)
     420:	7b 1a f8 ff 00 00 00 00	*(u64 *)(r10 - 0x8) = r1
     421:	79 a1 90 ff 00 00 00 00	r1 = *(u64 *)(r10 - 0x70)
     422:	7b 1a f0 ff 00 00 00 00	*(u64 *)(r10 - 0x10) = r1
     423:	bf a6 00 00 00 00 00 00	r6 = r10
     424:	07 06 00 00 a8 ff ff ff	r6 += -0x58
     425:	bf a2 00 00 00 00 00 00	r2 = r10
     426:	07 02 00 00 c0 ff ff ff	r2 += -0x40
     427:	bf 61 00 00 00 00 00 00	r1 = r6
     428:	85 10 00 00 f6 03 00 00	call 0x3f6
     429:	bf a1 00 00 00 00 00 00	r1 = r10
     430:	07 01 00 00 80 ff ff ff	r1 += -0x80
     431:	bf 62 00 00 00 00 00 00	r2 = r6
     432:	85 10 00 00 0b ff ff ff	call -0xf5
     433:	79 a2 88 ff 00 00 00 00	r2 = *(u64 *)(r10 - 0x78)
     434:	79 a1 80 ff 00 00 00 00	r1 = *(u64 *)(r10 - 0x80)
     435:	85 10 00 00 ff ff ff ff	call -0x1
     436:	bf 61 00 00 00 00 00 00	r1 = r6
     437:	85 10 00 00 05 ff ff ff	call -0xfb
     438:	bf 61 00 00 00 00 00 00	r1 = r6
     439:	85 10 00 00 74 ff ff ff	call -0x8c
     440:	95 00 00 00 00 00 00 00	exit

0000000000000dc8 <__rust_alloc>:
     441:	85 10 00 00 ad ff ff ff	call -0x53
     442:	95 00 00 00 00 00 00 00	exit

0000000000000dd8 <__rust_dealloc>:
     443:	85 10 00 00 c5 ff ff ff	call -0x3b
     444:	95 00 00 00 00 00 00 00	exit

0000000000000de8 <__rust_realloc>:
     445:	85 10 00 00 c4 ff ff ff	call -0x3c
     446:	95 00 00 00 00 00 00 00	exit

0000000000000df8 <__rust_alloc_zeroed>:
     447:	85 10 00 00 ca ff ff ff	call -0x36
     448:	95 00 00 00 00 00 00 00	exit

0000000000000e08 <__rust_alloc_error_handler>:
     449:	85 10 00 00 3c 04 00 00	call 0x43c
     450:	95 00 00 00 00 00 00 00	exit

0000000000000e18 <solana_program::entrypoint::deserialize::h82181de1ac41cadd>:
     451:	bf 28 00 00 00 00 00 00	r8 = r2
     452:	7b 1a 60 ff 00 00 00 00	*(u64 *)(r10 - 0xa0) = r1
     453:	79 86 00 00 00 00 00 00	r6 = *(u64 *)(r8 + 0x0)
     454:	bf a1 00 00 00 00 00 00	r1 = r10
     455:	07 01 00 00 c0 ff ff ff	r1 += -0x40
     456:	b7 07 00 00 00 00 00 00	r7 = 0x0
     457:	bf 62 00 00 00 00 00 00	r2 = r6
     458:	b7 03 00 00 00 00 00 00	r3 = 0x0
     459:	85 10 00 00 2a 01 00 00	call 0x12a
     460:	79 a1 c8 ff 00 00 00 00	r1 = *(u64 *)(r10 - 0x38)
     461:	7b 1a d8 ff 00 00 00 00	*(u64 *)(r10 - 0x28) = r1
     462:	79 a1 c0 ff 00 00 00 00	r1 = *(u64 *)(r10 - 0x40)
     463:	7b 1a d0 ff 00 00 00 00	*(u64 *)(r10 - 0x30) = r1
     464:	7b 7a e0 ff 00 00 00 00	*(u64 *)(r10 - 0x20) = r7
     465:	bf a1 00 00 00 00 00 00	r1 = r10
     466:	07 01 00 00 b0 ff ff ff	r1 += -0x50
     467:	b7 02 00 00 00 00 00 00	r2 = 0x0
     468:	bf 63 00 00 00 00 00 00	r3 = r6
     469:	bf 86 00 00 00 00 00 00	r6 = r8
     470:	85 10 00 00 cb 00 00 00	call 0xcb
     471:	b7 08 00 00 08 00 00 00	r8 = 0x8
     472:	79 a7 b8 ff 00 00 00 00	r7 = *(u64 *)(r10 - 0x48)
     473:	79 a1 b0 ff 00 00 00 00	r1 = *(u64 *)(r10 - 0x50)
     474:	3d 71 b1 00 00 00 00 00	if r1 >= r7 goto +0xb1 <LBB85_22>
     475:	1f 17 00 00 00 00 00 00	r7 -= r1
     476:	b7 08 00 00 08 00 00 00	r8 = 0x8
     477:	7b 6a 68 ff 00 00 00 00	*(u64 *)(r10 - 0x98) = r6
     478:	05 00 1c 00 00 00 00 00	goto +0x1c <LBB85_4>

0000000000000ef8 <LBB85_2>:
     479:	27 01 00 00 30 00 00 00	r1 *= 0x30
     480:	79 a2 d0 ff 00 00 00 00	r2 = *(u64 *)(r10 - 0x30)
     481:	0f 12 00 00 00 00 00 00	r2 += r1
     482:	73 62 2a 00 00 00 00 00	*(u8 *)(r2 + 0x2a) = r6
     483:	79 a1 78 ff 00 00 00 00	r1 = *(u64 *)(r10 - 0x88)
     484:	73 12 29 00 00 00 00 00	*(u8 *)(r2 + 0x29) = r1
     485:	79 a1 80 ff 00 00 00 00	r1 = *(u64 *)(r10 - 0x80)
     486:	73 12 28 00 00 00 00 00	*(u8 *)(r2 + 0x28) = r1
     487:	7b 92 20 00 00 00 00 00	*(u64 *)(r2 + 0x20) = r9
     488:	7b 72 18 00 00 00 00 00	*(u64 *)(r2 + 0x18) = r7
     489:	7b 02 10 00 00 00 00 00	*(u64 *)(r2 + 0x10) = r0
     490:	79 a1 70 ff 00 00 00 00	r1 = *(u64 *)(r10 - 0x90)
     491:	7b 12 08 00 00 00 00 00	*(u64 *)(r2 + 0x8) = r1
     492:	79 a1 88 ff 00 00 00 00	r1 = *(u64 *)(r10 - 0x78)
     493:	7b 12 00 00 00 00 00 00	*(u64 *)(r2 + 0x0) = r1
     494:	61 a1 e8 ff 00 00 00 00	r1 = *(u32 *)(r10 - 0x18)
     495:	63 12 2b 00 00 00 00 00	*(u32 *)(r2 + 0x2b) = r1
     496:	71 a1 ec ff 00 00 00 00	r1 = *(u8 *)(r10 - 0x14)
     497:	73 12 2f 00 00 00 00 00	*(u8 *)(r2 + 0x2f) = r1
     498:	79 a1 e0 ff 00 00 00 00	r1 = *(u64 *)(r10 - 0x20)
     499:	07 01 00 00 01 00 00 00	r1 += 0x1
     500:	7b 1a e0 ff 00 00 00 00	*(u64 *)(r10 - 0x20) = r1
     501:	79 a6 68 ff 00 00 00 00	r6 = *(u64 *)(r10 - 0x98)
     502:	79 a7 98 ff 00 00 00 00	r7 = *(u64 *)(r10 - 0x68)
     503:	79 a8 90 ff 00 00 00 00	r8 = *(u64 *)(r10 - 0x70)

0000000000000fc0 <LBB85_3>:
     504:	07 08 00 00 08 00 00 00	r8 += 0x8
     505:	07 07 00 00 ff ff ff ff	r7 += -0x1
     506:	15 07 91 00 00 00 00 00	if r7 == 0x0 goto +0x91 <LBB85_22>

0000000000000fd8 <LBB85_4>:
     507:	bf 61 00 00 00 00 00 00	r1 = r6
     508:	0f 81 00 00 00 00 00 00	r1 += r8
     509:	71 19 00 00 00 00 00 00	r9 = *(u8 *)(r1 + 0x0)
     510:	7b 7a 98 ff 00 00 00 00	*(u64 *)(r10 - 0x68) = r7
     511:	7b 8a 90 ff 00 00 00 00	*(u64 *)(r10 - 0x70) = r8
     512:	55 09 52 00 ff 00 00 00	if r9 != 0xff goto +0x52 <LBB85_14>
     513:	bf 89 00 00 00 00 00 00	r9 = r8
     514:	0f 69 00 00 00 00 00 00	r9 += r6
     515:	71 97 01 00 00 00 00 00	r7 = *(u8 *)(r9 + 0x1)
     516:	71 96 02 00 00 00 00 00	r6 = *(u8 *)(r9 + 0x2)
     517:	71 98 03 00 00 00 00 00	r8 = *(u8 *)(r9 + 0x3)
     518:	bf 92 00 00 00 00 00 00	r2 = r9
     519:	07 02 00 00 48 00 00 00	r2 += 0x48
     520:	b7 01 00 00 00 00 00 00	r1 = 0x0
     521:	85 10 00 00 d9 01 00 00	call 0x1d9
     522:	7b 0a 88 ff 00 00 00 00	*(u64 *)(r10 - 0x78) = r0
     523:	79 91 50 00 00 00 00 00	r1 = *(u64 *)(r9 + 0x50)
     524:	bf 92 00 00 00 00 00 00	r2 = r9
     525:	07 02 00 00 58 00 00 00	r2 += 0x58
     526:	7b 2a f0 ff 00 00 00 00	*(u64 *)(r10 - 0x10) = r2
     527:	b7 02 00 00 01 00 00 00	r2 = 0x1
     528:	b7 03 00 00 01 00 00 00	r3 = 0x1
     529:	55 08 01 00 00 00 00 00	if r8 != 0x0 goto +0x1 <LBB85_7>
     530:	b7 03 00 00 00 00 00 00	r3 = 0x0

0000000000001098 <LBB85_7>:
     531:	b7 04 00 00 01 00 00 00	r4 = 0x1
     532:	55 06 01 00 00 00 00 00	if r6 != 0x0 goto +0x1 <LBB85_9>
     533:	b7 04 00 00 00 00 00 00	r4 = 0x0

00000000000010b0 <LBB85_9>:
     534:	7b 4a 70 ff 00 00 00 00	*(u64 *)(r10 - 0x90) = r4
     535:	7b 3a 78 ff 00 00 00 00	*(u64 *)(r10 - 0x88) = r3
     536:	79 a6 90 ff 00 00 00 00	r6 = *(u64 *)(r10 - 0x70)
     537:	55 07 01 00 00 00 00 00	if r7 != 0x0 goto +0x1 <LBB85_11>
     538:	b7 02 00 00 00 00 00 00	r2 = 0x0

00000000000010d8 <LBB85_11>:
     539:	7b 2a 80 ff 00 00 00 00	*(u64 *)(r10 - 0x80) = r2
     540:	b7 02 00 00 00 00 00 00	r2 = 0x0
     541:	7b 2a e8 ff 00 00 00 00	*(u64 *)(r10 - 0x18) = r2
     542:	7b 1a f8 ff 00 00 00 00	*(u64 *)(r10 - 0x8) = r1
     543:	0f 16 00 00 00 00 00 00	r6 += r1
     544:	bf a1 00 00 00 00 00 00	r1 = r10
     545:	07 01 00 00 e8 ff ff ff	r1 += -0x18
     546:	85 10 00 00 d1 01 00 00	call 0x1d1
     547:	7b 0a 90 ff 00 00 00 00	*(u64 *)(r10 - 0x70) = r0
     548:	07 06 00 00 58 28 00 00	r6 += 0x2858
     549:	bf 61 00 00 00 00 00 00	r1 = r6
     550:	b7 02 00 00 08 00 00 00	r2 = 0x8
     551:	85 10 00 00 33 02 00 00	call 0x233
     552:	bf 07 00 00 00 00 00 00	r7 = r0
     553:	0f 67 00 00 00 00 00 00	r7 += r6
     554:	79 a6 68 ff 00 00 00 00	r6 = *(u64 *)(r10 - 0x98)
     555:	bf 61 00 00 00 00 00 00	r1 = r6
     556:	0f 71 00 00 00 00 00 00	r1 += r7
     557:	79 18 00 00 00 00 00 00	r8 = *(u64 *)(r1 + 0x0)
     558:	79 a1 e0 ff 00 00 00 00	r1 = *(u64 *)(r10 - 0x20)
     559:	79 a2 d8 ff 00 00 00 00	r2 = *(u64 *)(r10 - 0x28)
     560:	5d 21 05 00 00 00 00 00	if r1 != r2 goto +0x5 <LBB85_13>
     561:	bf a1 00 00 00 00 00 00	r1 = r10
     562:	07 01 00 00 d0 ff ff ff	r1 += -0x30
     563:	b7 02 00 00 01 00 00 00	r2 = 0x1
     564:	85 10 00 00 48 02 00 00	call 0x248
     565:	79 a1 e0 ff 00 00 00 00	r1 = *(u64 *)(r10 - 0x20)

00000000000011b0 <LBB85_13>:
     566:	bf 92 00 00 00 00 00 00	r2 = r9
     567:	07 02 00 00 28 00 00 00	r2 += 0x28
     568:	07 09 00 00 08 00 00 00	r9 += 0x8
     569:	27 01 00 00 30 00 00 00	r1 *= 0x30
     570:	79 a3 d0 ff 00 00 00 00	r3 = *(u64 *)(r10 - 0x30)
     571:	0f 13 00 00 00 00 00 00	r3 += r1
     572:	79 a1 78 ff 00 00 00 00	r1 = *(u64 *)(r10 - 0x88)
     573:	73 13 2a 00 00 00 00 00	*(u8 *)(r3 + 0x2a) = r1
     574:	79 a1 70 ff 00 00 00 00	r1 = *(u64 *)(r10 - 0x90)
     575:	73 13 29 00 00 00 00 00	*(u8 *)(r3 + 0x29) = r1
     576:	79 a1 80 ff 00 00 00 00	r1 = *(u64 *)(r10 - 0x80)
     577:	73 13 28 00 00 00 00 00	*(u8 *)(r3 + 0x28) = r1
     578:	7b 83 20 00 00 00 00 00	*(u64 *)(r3 + 0x20) = r8
     579:	7b 23 18 00 00 00 00 00	*(u64 *)(r3 + 0x18) = r2
     580:	79 a1 90 ff 00 00 00 00	r1 = *(u64 *)(r10 - 0x70)
     581:	7b 13 10 00 00 00 00 00	*(u64 *)(r3 + 0x10) = r1
     582:	79 a1 88 ff 00 00 00 00	r1 = *(u64 *)(r10 - 0x78)
     583:	7b 13 08 00 00 00 00 00	*(u64 *)(r3 + 0x8) = r1
     584:	7b 93 00 00 00 00 00 00	*(u64 *)(r3 + 0x0) = r9
     585:	61 a1 e8 ff 00 00 00 00	r1 = *(u32 *)(r10 - 0x18)
     586:	63 13 2b 00 00 00 00 00	*(u32 *)(r3 + 0x2b) = r1
     587:	71 a1 ec ff 00 00 00 00	r1 = *(u8 *)(r10 - 0x14)
     588:	73 13 2f 00 00 00 00 00	*(u8 *)(r3 + 0x2f) = r1
     589:	79 a1 e0 ff 00 00 00 00	r1 = *(u64 *)(r10 - 0x20)
     590:	07 01 00 00 01 00 00 00	r1 += 0x1
     591:	7b 1a e0 ff 00 00 00 00	*(u64 *)(r10 - 0x20) = r1
     592:	bf 78 00 00 00 00 00 00	r8 = r7
     593:	79 a7 98 ff 00 00 00 00	r7 = *(u64 *)(r10 - 0x68)
     594:	05 00 a5 ff 00 00 00 00	goto -0x5b <LBB85_3>

0000000000001298 <LBB85_14>:
     595:	bf a1 00 00 00 00 00 00	r1 = r10
     596:	07 01 00 00 a0 ff ff ff	r1 += -0x60
     597:	bf a2 00 00 00 00 00 00	r2 = r10
     598:	07 02 00 00 d0 ff ff ff	r2 += -0x30
     599:	85 10 00 00 2a 02 00 00	call 0x22a
     600:	79 a2 a8 ff 00 00 00 00	r2 = *(u64 *)(r10 - 0x58)
     601:	2d 92 05 00 00 00 00 00	if r2 > r9 goto +0x5 <LBB85_16>
     602:	bf 91 00 00 00 00 00 00	r1 = r9
     603:	18 03 00 00 e8 a9 00 00 00 00 00 00 00 00 00 00	r3 = 0xa9e8 ll
     605:	85 10 00 00 1f 0e 00 00	call 0xe1f
     606:	85 10 00 00 ff ff ff ff	call -0x1

00000000000012f8 <LBB85_16>:
     607:	79 a8 a0 ff 00 00 00 00	r8 = *(u64 *)(r10 - 0x60)
     608:	27 09 00 00 30 00 00 00	r9 *= 0x30
     609:	bf 87 00 00 00 00 00 00	r7 = r8
     610:	0f 97 00 00 00 00 00 00	r7 += r9
     611:	79 76 08 00 00 00 00 00	r6 = *(u64 *)(r7 + 0x8)
     612:	79 62 00 00 00 00 00 00	r2 = *(u64 *)(r6 + 0x0)
     613:	07 02 00 00 01 00 00 00	r2 += 0x1
     614:	25 02 02 00 01 00 00 00	if r2 > 0x1 goto +0x2 <LBB85_18>

0000000000001338 <LBB85_17>:
     615:	85 10 00 00 ff ff ff ff	call -0x1
     616:	85 10 00 00 ff ff ff ff	call -0x1

0000000000001348 <LBB85_18>:
     617:	71 71 29 00 00 00 00 00	r1 = *(u8 *)(r7 + 0x29)
     618:	7b 1a 78 ff 00 00 00 00	*(u64 *)(r10 - 0x88) = r1
     619:	71 71 28 00 00 00 00 00	r1 = *(u8 *)(r7 + 0x28)
     620:	7b 1a 80 ff 00 00 00 00	*(u64 *)(r10 - 0x80) = r1
     621:	79 71 00 00 00 00 00 00	r1 = *(u64 *)(r7 + 0x0)
     622:	7b 1a 88 ff 00 00 00 00	*(u64 *)(r10 - 0x78) = r1
     623:	bf 61 00 00 00 00 00 00	r1 = r6
     624:	85 10 00 00 2e 00 00 00	call 0x2e
     625:	bf 61 00 00 00 00 00 00	r1 = r6
     626:	85 10 00 00 6e 01 00 00	call 0x16e
     627:	7b 0a 70 ff 00 00 00 00	*(u64 *)(r10 - 0x90) = r0
     628:	79 76 10 00 00 00 00 00	r6 = *(u64 *)(r7 + 0x10)
     629:	79 62 00 00 00 00 00 00	r2 = *(u64 *)(r6 + 0x0)
     630:	07 02 00 00 01 00 00 00	r2 += 0x1
     631:	25 02 01 00 01 00 00 00	if r2 > 0x1 goto +0x1 <LBB85_20>
     632:	05 00 ee ff 00 00 00 00	goto -0x12 <LBB85_17>

00000000000013c8 <LBB85_20>:
     633:	bf 61 00 00 00 00 00 00	r1 = r6
     634:	85 10 00 00 24 00 00 00	call 0x24
     635:	0f 98 00 00 00 00 00 00	r8 += r9
     636:	bf 61 00 00 00 00 00 00	r1 = r6
     637:	85 10 00 00 63 01 00 00	call 0x163
     638:	79 89 20 00 00 00 00 00	r9 = *(u64 *)(r8 + 0x20)
     639:	71 86 2a 00 00 00 00 00	r6 = *(u8 *)(r8 + 0x2a)
     640:	79 87 18 00 00 00 00 00	r7 = *(u64 *)(r8 + 0x18)
     641:	79 a1 e0 ff 00 00 00 00	r1 = *(u64 *)(r10 - 0x20)
     642:	79 a2 d8 ff 00 00 00 00	r2 = *(u64 *)(r10 - 0x28)
     643:	5d 21 5b ff 00 00 00 00	if r1 != r2 goto -0xa5 <LBB85_2>
     644:	bf a1 00 00 00 00 00 00	r1 = r10
     645:	07 01 00 00 d0 ff ff ff	r1 += -0x30
     646:	b7 02 00 00 01 00 00 00	r2 = 0x1
     647:	bf 08 00 00 00 00 00 00	r8 = r0
     648:	85 10 00 00 f4 01 00 00	call 0x1f4
     649:	bf 80 00 00 00 00 00 00	r0 = r8
     650:	79 a1 e0 ff 00 00 00 00	r1 = *(u64 *)(r10 - 0x20)
     651:	05 00 53 ff 00 00 00 00	goto -0xad <LBB85_2>

0000000000001460 <LBB85_22>:
     652:	bf 61 00 00 00 00 00 00	r1 = r6
     653:	0f 81 00 00 00 00 00 00	r1 += r8
     654:	79 11 00 00 00 00 00 00	r1 = *(u64 *)(r1 + 0x0)
     655:	79 a2 e0 ff 00 00 00 00	r2 = *(u64 *)(r10 - 0x20)
     656:	79 a3 60 ff 00 00 00 00	r3 = *(u64 *)(r10 - 0xa0)
     657:	7b 23 18 00 00 00 00 00	*(u64 *)(r3 + 0x18) = r2
     658:	79 a2 d8 ff 00 00 00 00	r2 = *(u64 *)(r10 - 0x28)
     659:	7b 23 10 00 00 00 00 00	*(u64 *)(r3 + 0x10) = r2
     660:	79 a2 d0 ff 00 00 00 00	r2 = *(u64 *)(r10 - 0x30)
     661:	7b 23 08 00 00 00 00 00	*(u64 *)(r3 + 0x8) = r2
     662:	07 08 00 00 08 00 00 00	r8 += 0x8
     663:	bf 62 00 00 00 00 00 00	r2 = r6
     664:	0f 82 00 00 00 00 00 00	r2 += r8
     665:	7b 23 20 00 00 00 00 00	*(u64 *)(r3 + 0x20) = r2
     666:	7b 13 28 00 00 00 00 00	*(u64 *)(r3 + 0x28) = r1
     667:	0f 81 00 00 00 00 00 00	r1 += r8
     668:	0f 16 00 00 00 00 00 00	r6 += r1
     669:	7b 63 00 00 00 00 00 00	*(u64 *)(r3 + 0x0) = r6
     670:	95 00 00 00 00 00 00 00	exit

00000000000014f8 <core::cell::Cell$LT$T$GT$::replace::h7fd2d98ccc9d10f5>:
     671:	79 10 00 00 00 00 00 00	r0 = *(u64 *)(r1 + 0x0)
     672:	7b 21 00 00 00 00 00 00	*(u64 *)(r1 + 0x0) = r2
     673:	95 00 00 00 00 00 00 00	exit

0000000000001510 <_$LT$I$u20$as$u20$core..iter..traits..collect..IntoIterator$GT$::into_iter::hdef0f878fcd2186b>:
     674:	7b 31 08 00 00 00 00 00	*(u64 *)(r1 + 0x8) = r3
     675:	7b 21 00 00 00 00 00 00	*(u64 *)(r1 + 0x0) = r2
     676:	95 00 00 00 00 00 00 00	exit

0000000000001528 <core::alloc::layout::size_align::hf45fe42007fd0dfa>:
     677:	b7 02 00 00 08 00 00 00	r2 = 0x8
     678:	7b 21 08 00 00 00 00 00	*(u64 *)(r1 + 0x8) = r2
     679:	b7 02 00 00 30 00 00 00	r2 = 0x30
     680:	7b 21 00 00 00 00 00 00	*(u64 *)(r1 + 0x0) = r2
     681:	95 00 00 00 00 00 00 00	exit

0000000000001550 <_$LT$T$u20$as$u20$core..convert..From$LT$T$GT$$GT$::from::h49934955f96b1b87>:
     682:	95 00 00 00 00 00 00 00	exit

0000000000001558 <_$LT$T$u20$as$u20$core..convert..Into$LT$U$GT$$GT$::into::h0a2b889f033dede8>:
     683:	bf 10 00 00 00 00 00 00	r0 = r1
     684:	95 00 00 00 00 00 00 00	exit

0000000000001568 <core::ptr::align_offset::hfde2a4df712ebf2a>:
     685:	bf 20 00 00 00 00 00 00	r0 = r2
     686:	0f 10 00 00 00 00 00 00	r0 += r1
     687:	07 00 00 00 ff ff ff ff	r0 += -0x1
     688:	87 02 00 00 00 00 00 00	r2 = -r2
     689:	5f 20 00 00 00 00 00 00	r0 &= r2
     690:	1f 10 00 00 00 00 00 00	r0 -= r1
     691:	95 00 00 00 00 00 00 00	exit

00000000000015a0 <solana_program::account_info::AccountInfo::try_borrow_mut_lamports::h6502c3beeacf28e4>:
     692:	bf 16 00 00 00 00 00 00	r6 = r1
     693:	79 28 08 00 00 00 00 00	r8 = *(u64 *)(r2 + 0x8)
     694:	79 81 10 00 00 00 00 00	r1 = *(u64 *)(r8 + 0x10)
     695:	15 01 04 00 00 00 00 00	if r1 == 0x0 goto +0x4 <LBB83_2>
     696:	b7 01 00 00 0b 00 00 00	r1 = 0xb
     697:	63 16 08 00 00 00 00 00	*(u32 *)(r6 + 0x8) = r1
     698:	b7 01 00 00 01 00 00 00	r1 = 0x1
     699:	05 00 09 00 00 00 00 00	goto +0x9 <LBB83_3>

00000000000015e0 <LBB83_2>:
     700:	bf 87 00 00 00 00 00 00	r7 = r8
     701:	07 07 00 00 10 00 00 00	r7 += 0x10
     702:	bf 71 00 00 00 00 00 00	r1 = r7
     703:	b7 02 00 00 ff ff ff ff	r2 = -0x1
     704:	85 10 00 00 de ff ff ff	call -0x22
     705:	7b 76 10 00 00 00 00 00	*(u64 *)(r6 + 0x10) = r7
     706:	07 08 00 00 18 00 00 00	r8 += 0x18
     707:	7b 86 08 00 00 00 00 00	*(u64 *)(r6 + 0x8) = r8
     708:	b7 01 00 00 00 00 00 00	r1 = 0x0

0000000000001628 <LBB83_3>:
     709:	7b 16 00 00 00 00 00 00	*(u64 *)(r6 + 0x0) = r1
     710:	95 00 00 00 00 00 00 00	exit

0000000000001638 <core::ptr::drop_in_place$LT$core..alloc..layout..LayoutError$GT$::hd4f5fe10d17b157b>:
     711:	95 00 00 00 00 00 00 00	exit

0000000000001640 <alloc::raw_vec::finish_grow::h349f0489eab69595>:
     712:	bf 38 00 00 00 00 00 00	r8 = r3
     713:	bf 27 00 00 00 00 00 00	r7 = r2
     714:	bf 16 00 00 00 00 00 00	r6 = r1
     715:	15 08 10 00 00 00 00 00	if r8 == 0x0 goto +0x10 <LBB1_11>
     716:	79 41 00 00 00 00 00 00	r1 = *(u64 *)(r4 + 0x0)
     717:	55 01 06 00 00 00 00 00	if r1 != 0x0 goto +0x6 <LBB1_4>
     718:	15 07 21 00 00 00 00 00	if r7 == 0x0 goto +0x21 <LBB1_9>
     719:	bf 71 00 00 00 00 00 00	r1 = r7
     720:	bf 82 00 00 00 00 00 00	r2 = r8
     721:	85 10 00 00 e7 fe ff ff	call -0x119
     722:	15 00 18 00 00 00 00 00	if r0 == 0x0 goto +0x18 <LBB1_8>
     723:	05 00 1d 00 00 00 00 00	goto +0x1d <LBB1_10>

00000000000016a0 <LBB1_4>:
     724:	79 42 08 00 00 00 00 00	r2 = *(u64 *)(r4 + 0x8)
     725:	55 02 10 00 00 00 00 00	if r2 != 0x0 goto +0x10 <LBB1_7>
     726:	15 07 19 00 00 00 00 00	if r7 == 0x0 goto +0x19 <LBB1_9>
     727:	bf 71 00 00 00 00 00 00	r1 = r7
     728:	bf 82 00 00 00 00 00 00	r2 = r8
     729:	85 10 00 00 df fe ff ff	call -0x121
     730:	15 00 10 00 00 00 00 00	if r0 == 0x0 goto +0x10 <LBB1_8>
     731:	05 00 15 00 00 00 00 00	goto +0x15 <LBB1_10>

00000000000016e0 <LBB1_11>:
     732:	bf a1 00 00 00 00 00 00	r1 = r10
     733:	07 01 00 00 f0 ff ff ff	r1 += -0x10
     734:	bf 72 00 00 00 00 00 00	r2 = r7
     735:	b7 03 00 00 00 00 00 00	r3 = 0x0
     736:	85 10 00 00 c1 ff ff ff	call -0x3f
     737:	79 a7 f8 ff 00 00 00 00	r7 = *(u64 *)(r10 - 0x8)
     738:	79 a1 f0 ff 00 00 00 00	r1 = *(u64 *)(r10 - 0x10)
     739:	7b 16 08 00 00 00 00 00	*(u64 *)(r6 + 0x8) = r1
     740:	b7 01 00 00 01 00 00 00	r1 = 0x1
     741:	05 00 0d 00 00 00 00 00	goto +0xd <LBB1_12>

0000000000001730 <LBB1_7>:
     742:	bf 83 00 00 00 00 00 00	r3 = r8
     743:	bf 74 00 00 00 00 00 00	r4 = r7
     744:	85 10 00 00 d4 fe ff ff	call -0x12c
     745:	15 00 01 00 00 00 00 00	if r0 == 0x0 goto +0x1 <LBB1_8>
     746:	05 00 06 00 00 00 00 00	goto +0x6 <LBB1_10>

0000000000001758 <LBB1_8>:
     747:	85 10 00 00 be ff ff ff	call -0x42
     748:	7b 76 08 00 00 00 00 00	*(u64 *)(r6 + 0x8) = r7
     749:	b7 01 00 00 01 00 00 00	r1 = 0x1
     750:	bf 87 00 00 00 00 00 00	r7 = r8
     751:	05 00 03 00 00 00 00 00	goto +0x3 <LBB1_12>

0000000000001780 <LBB1_9>:
     752:	bf 80 00 00 00 00 00 00	r0 = r8

0000000000001788 <LBB1_10>:
     753:	7b 06 08 00 00 00 00 00	*(u64 *)(r6 + 0x8) = r0
     754:	b7 01 00 00 00 00 00 00	r1 = 0x0

0000000000001798 <LBB1_12>:
     755:	7b 16 00 00 00 00 00 00	*(u64 *)(r6 + 0x0) = r1
     756:	7b 76 10 00 00 00 00 00	*(u64 *)(r6 + 0x10) = r7
     757:	95 00 00 00 00 00 00 00	exit

00000000000017b0 <alloc::raw_vec::RawVec$LT$T$C$A$GT$::allocate_in::hf8cc41037a689196>:
     758:	7b 3a d0 ff 00 00 00 00	*(u64 *)(r10 - 0x30) = r3
     759:	bf 29 00 00 00 00 00 00	r9 = r2
     760:	7b 1a c8 ff 00 00 00 00	*(u64 *)(r10 - 0x38) = r1
     761:	bf a1 00 00 00 00 00 00	r1 = r10
     762:	07 01 00 00 e8 ff ff ff	r1 += -0x18
     763:	85 10 00 00 a9 ff ff ff	call -0x57
     764:	79 a6 f0 ff 00 00 00 00	r6 = *(u64 *)(r10 - 0x10)
     765:	bf 67 00 00 00 00 00 00	r7 = r6
     766:	07 07 00 00 ff ff ff ff	r7 += -0x1
     767:	79 a1 e8 ff 00 00 00 00	r1 = *(u64 *)(r10 - 0x18)
     768:	bf 72 00 00 00 00 00 00	r2 = r7
     769:	0f 12 00 00 00 00 00 00	r2 += r1
     770:	bf 68 00 00 00 00 00 00	r8 = r6
     771:	87 08 00 00 00 00 00 00	r8 = -r8
     772:	5f 82 00 00 00 00 00 00	r2 &= r8
     773:	bf a1 00 00 00 00 00 00	r1 = r10
     774:	07 01 00 00 d8 ff ff ff	r1 += -0x28
     775:	b7 03 00 00 00 00 00 00	r3 = 0x0
     776:	bf 94 00 00 00 00 00 00	r4 = r9
     777:	b7 05 00 00 00 00 00 00	r5 = 0x0
     778:	85 10 00 00 3e 0e 00 00	call 0xe3e
     779:	b7 01 00 00 01 00 00 00	r1 = 0x1
     780:	79 a2 e0 ff 00 00 00 00	r2 = *(u64 *)(r10 - 0x20)
     781:	55 02 01 00 00 00 00 00	if r2 != 0x0 goto +0x1 <LBB13_2>
     782:	b7 01 00 00 00 00 00 00	r1 = 0x0

0000000000001878 <LBB13_2>:
     783:	55 01 04 00 01 00 00 00	if r1 != 0x1 goto +0x4 <LBB13_5>
     784:	85 10 00 00 99 ff ff ff	call -0x67

0000000000001888 <LBB13_4>:
     785:	85 10 00 00 98 ff ff ff	call -0x68
     786:	85 10 00 00 e8 01 00 00	call 0x1e8
     787:	85 10 00 00 ff ff ff ff	call -0x1

00000000000018a0 <LBB13_5>:
     788:	15 06 fc ff 00 00 00 00	if r6 == 0x0 goto -0x4 <LBB13_4>
     789:	bf 61 00 00 00 00 00 00	r1 = r6
     790:	77 01 00 00 01 00 00 00	r1 >>= 0x1
     791:	18 02 00 00 55 55 55 55 00 00 00 00 55 55 55 55	r2 = 0x5555555555555555 ll
     793:	5f 21 00 00 00 00 00 00	r1 &= r2
     794:	bf 62 00 00 00 00 00 00	r2 = r6
     795:	1f 12 00 00 00 00 00 00	r2 -= r1
     796:	18 01 00 00 33 33 33 33 00 00 00 00 33 33 33 33	r1 = 0x3333333333333333 ll
     798:	bf 23 00 00 00 00 00 00	r3 = r2
     799:	5f 13 00 00 00 00 00 00	r3 &= r1
     800:	77 02 00 00 02 00 00 00	r2 >>= 0x2
     801:	5f 12 00 00 00 00 00 00	r2 &= r1
     802:	0f 23 00 00 00 00 00 00	r3 += r2
     803:	bf 31 00 00 00 00 00 00	r1 = r3
     804:	77 01 00 00 04 00 00 00	r1 >>= 0x4
     805:	0f 13 00 00 00 00 00 00	r3 += r1
     806:	18 01 00 00 0f 0f 0f 0f 00 00 00 00 0f 0f 0f 0f	r1 = 0xf0f0f0f0f0f0f0f ll
     808:	5f 13 00 00 00 00 00 00	r3 &= r1
     809:	18 01 00 00 01 01 01 01 00 00 00 00 01 01 01 01	r1 = 0x101010101010101 ll
     811:	2f 13 00 00 00 00 00 00	r3 *= r1
     812:	77 03 00 00 38 00 00 00	r3 >>= 0x38
     813:	15 03 0b 00 01 00 00 00	if r3 == 0x1 goto +0xb <LBB13_8>
     814:	bf a3 00 00 00 00 00 00	r3 = r10
     815:	07 03 00 00 f8 ff ff ff	r3 += -0x8
     816:	18 01 00 00 99 9c 00 00 00 00 00 00 00 00 00 00	r1 = 0x9c99 ll
     818:	b7 02 00 00 2b 00 00 00	r2 = 0x2b
     819:	18 04 00 00 18 aa 00 00 00 00 00 00 00 00 00 00	r4 = 0xaa18 ll
     821:	18 05 00 00 00 aa 00 00 00 00 00 00 00 00 00 00	r5 = 0xaa00 ll
     823:	85 10 00 00 01 06 00 00	call 0x601
     824:	85 10 00 00 ff ff ff ff	call -0x1

00000000000019c8 <LBB13_8>:
     825:	79 a9 d8 ff 00 00 00 00	r9 = *(u64 *)(r10 - 0x28)
     826:	0f 79 00 00 00 00 00 00	r9 += r7
     827:	5f 89 00 00 00 00 00 00	r9 &= r8
     828:	79 a1 d0 ff 00 00 00 00	r1 = *(u64 *)(r10 - 0x30)
     829:	15 01 06 00 00 00 00 00	if r1 == 0x0 goto +0x6 <LBB13_11>
     830:	15 09 10 00 00 00 00 00	if r9 == 0x0 goto +0x10 <LBB13_14>
     831:	bf 91 00 00 00 00 00 00	r1 = r9
     832:	bf 62 00 00 00 00 00 00	r2 = r6
     833:	85 10 00 00 7d fe ff ff	call -0x183
     834:	15 00 07 00 00 00 00 00	if r0 == 0x0 goto +0x7 <LBB13_13>
     835:	05 00 0c 00 00 00 00 00	goto +0xc <LBB13_15>

0000000000001a20 <LBB13_11>:
     836:	15 09 0a 00 00 00 00 00	if r9 == 0x0 goto +0xa <LBB13_14>
     837:	bf 91 00 00 00 00 00 00	r1 = r9
     838:	bf 62 00 00 00 00 00 00	r2 = r6
     839:	85 10 00 00 71 fe ff ff	call -0x18f
     840:	15 00 01 00 00 00 00 00	if r0 == 0x0 goto +0x1 <LBB13_13>
     841:	05 00 06 00 00 00 00 00	goto +0x6 <LBB13_15>

0000000000001a50 <LBB13_13>:
     842:	85 10 00 00 5f ff ff ff	call -0xa1
     843:	bf 91 00 00 00 00 00 00	r1 = r9
     844:	bf 62 00 00 00 00 00 00	r2 = r6
     845:	85 10 00 00 52 02 00 00	call 0x252
     846:	85 10 00 00 ff ff ff ff	call -0x1

0000000000001a78 <LBB13_14>:
     847:	bf 60 00 00 00 00 00 00	r0 = r6

0000000000001a80 <LBB13_15>:
     848:	79 a1 c8 ff 00 00 00 00	r1 = *(u64 *)(r10 - 0x38)
     849:	7b 01 00 00 00 00 00 00	*(u64 *)(r1 + 0x0) = r0
     850:	37 09 00 00 30 00 00 00	r9 /= 0x30
     851:	7b 91 08 00 00 00 00 00	*(u64 *)(r1 + 0x8) = r9
     852:	95 00 00 00 00 00 00 00	exit

0000000000001aa8 <alloc::raw_vec::RawVec$LT$T$C$A$GT$::reserve::h5c495889a7094efd>:
     853:	bf 16 00 00 00 00 00 00	r6 = r1
     854:	79 68 08 00 00 00 00 00	r8 = *(u64 *)(r6 + 0x8)
     855:	bf 81 00 00 00 00 00 00	r1 = r8
     856:	1f 21 00 00 00 00 00 00	r1 -= r2
     857:	3d 31 6b 00 00 00 00 00	if r1 >= r3 goto +0x6b <LBB21_27>
     858:	bf 27 00 00 00 00 00 00	r7 = r2
     859:	0f 37 00 00 00 00 00 00	r7 += r3
     860:	b7 01 00 00 01 00 00 00	r1 = 0x1
     861:	2d 72 01 00 00 00 00 00	if r2 > r7 goto +0x1 <LBB21_3>
     862:	b7 01 00 00 00 00 00 00	r1 = 0x0

0000000000001af8 <LBB21_3>:
     863:	57 01 00 00 01 00 00 00	r1 &= 0x1
     864:	55 01 65 00 00 00 00 00	if r1 != 0x0 goto +0x65 <LBB21_21>
     865:	bf a1 00 00 00 00 00 00	r1 = r10
     866:	07 01 00 00 c0 ff ff ff	r1 += -0x40
     867:	85 10 00 00 41 ff ff ff	call -0xbf
     868:	67 08 00 00 01 00 00 00	r8 <<= 0x1
     869:	2d 78 01 00 00 00 00 00	if r8 > r7 goto +0x1 <LBB21_6>
     870:	bf 78 00 00 00 00 00 00	r8 = r7

0000000000001b38 <LBB21_6>:
     871:	7b 6a 88 ff 00 00 00 00	*(u64 *)(r10 - 0x78) = r6
     872:	25 08 01 00 04 00 00 00	if r8 > 0x4 goto +0x1 <LBB21_8>
     873:	b7 08 00 00 04 00 00 00	r8 = 0x4

0000000000001b50 <LBB21_8>:
     874:	79 a6 c8 ff 00 00 00 00	r6 = *(u64 *)(r10 - 0x38)
     875:	bf 69 00 00 00 00 00 00	r9 = r6
     876:	07 09 00 00 ff ff ff ff	r9 += -0x1
     877:	79 a1 c0 ff 00 00 00 00	r1 = *(u64 *)(r10 - 0x40)
     878:	bf 92 00 00 00 00 00 00	r2 = r9
     879:	0f 12 00 00 00 00 00 00	r2 += r1
     880:	bf 67 00 00 00 00 00 00	r7 = r6
     881:	87 07 00 00 00 00 00 00	r7 = -r7
     882:	5f 72 00 00 00 00 00 00	r2 &= r7
     883:	bf a1 00 00 00 00 00 00	r1 = r10
     884:	07 01 00 00 b0 ff ff ff	r1 += -0x50
     885:	b7 03 00 00 00 00 00 00	r3 = 0x0
     886:	bf 84 00 00 00 00 00 00	r4 = r8
     887:	b7 05 00 00 00 00 00 00	r5 = 0x0
     888:	85 10 00 00 d0 0d 00 00	call 0xdd0
     889:	b7 01 00 00 01 00 00 00	r1 = 0x1
     890:	79 a2 b8 ff 00 00 00 00	r2 = *(u64 *)(r10 - 0x48)
     891:	55 02 01 00 00 00 00 00	if r2 != 0x0 goto +0x1 <LBB21_10>
     892:	b7 01 00 00 00 00 00 00	r1 = 0x0

0000000000001be8 <LBB21_10>:
     893:	55 01 04 00 01 00 00 00	if r1 != 0x1 goto +0x4 <LBB21_13>
     894:	85 10 00 00 2b ff ff ff	call -0xd5

0000000000001bf8 <LBB21_12>:
     895:	85 10 00 00 2a ff ff ff	call -0xd6
     896:	b7 06 00 00 00 00 00 00	r6 = 0x0
     897:	05 00 28 00 00 00 00 00	goto +0x28 <LBB21_17>

0000000000001c10 <LBB21_13>:
     898:	15 06 fc ff 00 00 00 00	if r6 == 0x0 goto -0x4 <LBB21_12>
     899:	bf 61 00 00 00 00 00 00	r1 = r6
     900:	77 01 00 00 01 00 00 00	r1 >>= 0x1
     901:	18 02 00 00 55 55 55 55 00 00 00 00 55 55 55 55	r2 = 0x5555555555555555 ll
     903:	5f 21 00 00 00 00 00 00	r1 &= r2
     904:	bf 62 00 00 00 00 00 00	r2 = r6
     905:	1f 12 00 00 00 00 00 00	r2 -= r1
     906:	18 01 00 00 33 33 33 33 00 00 00 00 33 33 33 33	r1 = 0x3333333333333333 ll
     908:	bf 23 00 00 00 00 00 00	r3 = r2
     909:	5f 13 00 00 00 00 00 00	r3 &= r1
     910:	77 02 00 00 02 00 00 00	r2 >>= 0x2
     911:	5f 12 00 00 00 00 00 00	r2 &= r1
     912:	0f 23 00 00 00 00 00 00	r3 += r2
     913:	bf 31 00 00 00 00 00 00	r1 = r3
     914:	77 01 00 00 04 00 00 00	r1 >>= 0x4
     915:	0f 13 00 00 00 00 00 00	r3 += r1
     916:	18 01 00 00 0f 0f 0f 0f 00 00 00 00 0f 0f 0f 0f	r1 = 0xf0f0f0f0f0f0f0f ll
     918:	5f 13 00 00 00 00 00 00	r3 &= r1
     919:	18 01 00 00 01 01 01 01 00 00 00 00 01 01 01 01	r1 = 0x101010101010101 ll
     921:	2f 13 00 00 00 00 00 00	r3 *= r1
     922:	77 03 00 00 38 00 00 00	r3 >>= 0x38
     923:	15 03 0b 00 01 00 00 00	if r3 == 0x1 goto +0xb <LBB21_16>
     924:	bf a3 00 00 00 00 00 00	r3 = r10
     925:	07 03 00 00 e8 ff ff ff	r3 += -0x18
     926:	18 01 00 00 99 9c 00 00 00 00 00 00 00 00 00 00	r1 = 0x9c99 ll
     928:	b7 02 00 00 2b 00 00 00	r2 = 0x2b
     929:	18 04 00 00 18 aa 00 00 00 00 00 00 00 00 00 00	r4 = 0xaa18 ll
     931:	18 05 00 00 00 aa 00 00 00 00 00 00 00 00 00 00	r5 = 0xaa00 ll
     933:	85 10 00 00 93 05 00 00	call 0x593
     934:	85 10 00 00 ff ff ff ff	call -0x1

0000000000001d38 <LBB21_16>:
     935:	79 a8 b0 ff 00 00 00 00	r8 = *(u64 *)(r10 - 0x50)
     936:	0f 98 00 00 00 00 00 00	r8 += r9
     937:	5f 78 00 00 00 00 00 00	r8 &= r7

0000000000001d50 <LBB21_17>:
     938:	79 a9 88 ff 00 00 00 00	r9 = *(u64 *)(r10 - 0x78)
     939:	79 97 08 00 00 00 00 00	r7 = *(u64 *)(r9 + 0x8)
     940:	55 07 03 00 00 00 00 00	if r7 != 0x0 goto +0x3 <LBB21_19>
     941:	b7 01 00 00 00 00 00 00	r1 = 0x0
     942:	7b 1a e8 ff 00 00 00 00	*(u64 *)(r10 - 0x18) = r1
     943:	05 00 07 00 00 00 00 00	goto +0x7 <LBB21_20>

0000000000001d80 <LBB21_19>:
     944:	79 91 00 00 00 00 00 00	r1 = *(u64 *)(r9 + 0x0)
     945:	85 10 00 00 f9 fe ff ff	call -0x107
     946:	b7 01 00 00 08 00 00 00	r1 = 0x8
     947:	7b 1a f8 ff 00 00 00 00	*(u64 *)(r10 - 0x8) = r1
     948:	27 07 00 00 30 00 00 00	r7 *= 0x30
     949:	7b 7a f0 ff 00 00 00 00	*(u64 *)(r10 - 0x10) = r7
     950:	7b 0a e8 ff 00 00 00 00	*(u64 *)(r10 - 0x18) = r0

0000000000001db8 <LBB21_20>:
     951:	bf a1 00 00 00 00 00 00	r1 = r10
     952:	07 01 00 00 d0 ff ff ff	r1 += -0x30
     953:	bf a4 00 00 00 00 00 00	r4 = r10
     954:	07 04 00 00 e8 ff ff ff	r4 += -0x18
     955:	bf 82 00 00 00 00 00 00	r2 = r8
     956:	bf 63 00 00 00 00 00 00	r3 = r6
     957:	85 10 00 00 0a ff ff ff	call -0xf6
     958:	79 a3 e0 ff 00 00 00 00	r3 = *(u64 *)(r10 - 0x20)
     959:	79 a2 d8 ff 00 00 00 00	r2 = *(u64 *)(r10 - 0x28)
     960:	79 a1 d0 ff 00 00 00 00	r1 = *(u64 *)(r10 - 0x30)
     961:	15 01 0c 00 01 00 00 00	if r1 == 0x1 goto +0xc <LBB21_22>
     962:	7b 29 00 00 00 00 00 00	*(u64 *)(r9 + 0x0) = r2
     963:	37 03 00 00 30 00 00 00	r3 /= 0x30
     964:	7b 39 08 00 00 00 00 00	*(u64 *)(r9 + 0x8) = r3

0000000000001e28 <LBB21_27>:
     965:	95 00 00 00 00 00 00 00	exit

0000000000001e30 <LBB21_21>:
     966:	bf a1 00 00 00 00 00 00	r1 = r10
     967:	07 01 00 00 90 ff ff ff	r1 += -0x70
     968:	bf 72 00 00 00 00 00 00	r2 = r7
     969:	b7 03 00 00 00 00 00 00	r3 = 0x0
     970:	85 10 00 00 d7 fe ff ff	call -0x129
     971:	79 a2 98 ff 00 00 00 00	r2 = *(u64 *)(r10 - 0x68)
     972:	79 a1 90 ff 00 00 00 00	r1 = *(u64 *)(r10 - 0x70)
     973:	05 00 05 00 00 00 00 00	goto +0x5 <LBB21_23>

0000000000001e70 <LBB21_22>:
     974:	bf a1 00 00 00 00 00 00	r1 = r10
     975:	07 01 00 00 a0 ff ff ff	r1 += -0x60
     976:	85 10 00 00 d1 fe ff ff	call -0x12f
     977:	79 a2 a8 ff 00 00 00 00	r2 = *(u64 *)(r10 - 0x58)
     978:	79 a1 a0 ff 00 00 00 00	r1 = *(u64 *)(r10 - 0x60)

0000000000001e98 <LBB21_23>:
     979:	55 02 02 00 00 00 00 00	if r2 != 0x0 goto +0x2 <LBB21_25>
     980:	85 10 00 00 26 01 00 00	call 0x126
     981:	85 10 00 00 ff ff ff ff	call -0x1

0000000000001eb0 <LBB21_25>:
     982:	85 10 00 00 c9 01 00 00	call 0x1c9
     983:	85 10 00 00 ff ff ff ff	call -0x1

0000000000001ec0 <_$LT$alloc..raw_vec..RawVec$LT$T$C$A$GT$$u20$as$u20$core..ops..drop..Drop$GT$::drop::hae0b58a1787a9098>:
     984:	79 16 08 00 00 00 00 00	r6 = *(u64 *)(r1 + 0x8)
     985:	15 06 06 00 00 00 00 00	if r6 == 0x0 goto +0x6 <LBB36_2>
     986:	79 11 00 00 00 00 00 00	r1 = *(u64 *)(r1 + 0x0)
     987:	85 10 00 00 cf fe ff ff	call -0x131
     988:	bf 01 00 00 00 00 00 00	r1 = r0
     989:	bf 62 00 00 00 00 00 00	r2 = r6
     990:	b7 03 00 00 01 00 00 00	r3 = 0x1
     991:	85 10 00 00 db fd ff ff	call -0x225

0000000000001f00 <LBB36_2>:
     992:	95 00 00 00 00 00 00 00	exit

0000000000001f08 <alloc::rc::Rc$LT$T$GT$::from_inner::hdd1a82fefea60cb6>:
     993:	bf 10 00 00 00 00 00 00	r0 = r1
     994:	95 00 00 00 00 00 00 00	exit

0000000000001f18 <alloc::rc::Rc$LT$T$GT$::new::h451bc8c39b87b05a>:
     995:	bf 27 00 00 00 00 00 00	r7 = r2
     996:	bf 16 00 00 00 00 00 00	r6 = r1
     997:	b7 01 00 00 20 00 00 00	r1 = 0x20
     998:	b7 02 00 00 08 00 00 00	r2 = 0x8
     999:	85 10 00 00 d1 fd ff ff	call -0x22f
    1000:	55 00 05 00 00 00 00 00	if r0 != 0x0 goto +0x5 <LBB39_2>
    1001:	85 10 00 00 c0 fe ff ff	call -0x140
    1002:	b7 01 00 00 20 00 00 00	r1 = 0x20
    1003:	b7 02 00 00 08 00 00 00	r2 = 0x8
    1004:	85 10 00 00 b3 01 00 00	call 0x1b3
    1005:	85 10 00 00 ff ff ff ff	call -0x1

0000000000001f70 <LBB39_2>:
    1006:	7b 70 18 00 00 00 00 00	*(u64 *)(r0 + 0x18) = r7
    1007:	7b 60 10 00 00 00 00 00	*(u64 *)(r0 + 0x10) = r6
    1008:	b7 01 00 00 01 00 00 00	r1 = 0x1
    1009:	7b 10 08 00 00 00 00 00	*(u64 *)(r0 + 0x8) = r1
    1010:	7b 10 00 00 00 00 00 00	*(u64 *)(r0 + 0x0) = r1
    1011:	95 00 00 00 00 00 00 00	exit

0000000000001fa0 <alloc::rc::Rc$LT$T$GT$::new::h5d4cbea2e52980c7>:
    1012:	bf 16 00 00 00 00 00 00	r6 = r1
    1013:	b7 01 00 00 28 00 00 00	r1 = 0x28
    1014:	b7 02 00 00 08 00 00 00	r2 = 0x8
    1015:	85 10 00 00 c1 fd ff ff	call -0x23f
    1016:	55 00 05 00 00 00 00 00	if r0 != 0x0 goto +0x5 <LBB40_2>
    1017:	85 10 00 00 b0 fe ff ff	call -0x150
    1018:	b7 01 00 00 28 00 00 00	r1 = 0x28
    1019:	b7 02 00 00 08 00 00 00	r2 = 0x8
    1020:	85 10 00 00 a3 01 00 00	call 0x1a3
    1021:	85 10 00 00 ff ff ff ff	call -0x1

0000000000001ff0 <LBB40_2>:
    1022:	b7 01 00 00 01 00 00 00	r1 = 0x1
    1023:	7b 10 08 00 00 00 00 00	*(u64 *)(r0 + 0x8) = r1
    1024:	7b 10 00 00 00 00 00 00	*(u64 *)(r0 + 0x0) = r1
    1025:	79 61 00 00 00 00 00 00	r1 = *(u64 *)(r6 + 0x0)
    1026:	7b 10 10 00 00 00 00 00	*(u64 *)(r0 + 0x10) = r1
    1027:	79 61 08 00 00 00 00 00	r1 = *(u64 *)(r6 + 0x8)
    1028:	7b 10 18 00 00 00 00 00	*(u64 *)(r0 + 0x18) = r1
    1029:	79 61 10 00 00 00 00 00	r1 = *(u64 *)(r6 + 0x10)
    1030:	7b 10 20 00 00 00 00 00	*(u64 *)(r0 + 0x20) = r1
    1031:	95 00 00 00 00 00 00 00	exit

0000000000002040 <solana_program::program_error::_$LT$impl$u20$core..convert..From$LT$solana_program..program_error..ProgramError$GT$$u20$for$u20$u64$GT$::from::h338adfb5429a6110>:
    1032:	bf 16 00 00 00 00 00 00	r6 = r1
    1033:	61 61 00 00 00 00 00 00	r1 = *(u32 *)(r6 + 0x0)
    1034:	65 01 06 00 08 00 00 00	if r1 s> 0x8 goto +0x6 <LBB61_13>
    1035:	65 01 0b 00 03 00 00 00	if r1 s> 0x3 goto +0xb <LBB61_7>
    1036:	65 01 1e 00 01 00 00 00	if r1 s> 0x1 goto +0x1e <LBB61_5>
    1037:	15 01 25 00 00 00 00 00	if r1 == 0x0 goto +0x25 <LBB61_25>
    1038:	18 07 00 00 00 00 00 00 00 00 00 00 02 00 00 00	r7 = 0x200000000 ll
    1040:	05 00 42 00 00 00 00 00	goto +0x42 <LBB61_36>

0000000000002088 <LBB61_13>:
    1041:	65 01 0a 00 0c 00 00 00	if r1 s> 0xc goto +0xa <LBB61_19>
    1042:	65 01 1c 00 0a 00 00 00	if r1 s> 0xa goto +0x1c <LBB61_17>
    1043:	15 01 25 00 09 00 00 00	if r1 == 0x9 goto +0x25 <LBB61_30>
    1044:	18 07 00 00 00 00 00 00 00 00 00 00 0b 00 00 00	r7 = 0xb00000000 ll
    1046:	05 00 3c 00 00 00 00 00	goto +0x3c <LBB61_36>

00000000000020b8 <LBB61_7>:
    1047:	65 01 09 00 05 00 00 00	if r1 s> 0x5 goto +0x9 <LBB61_10>
    1048:	15 01 23 00 04 00 00 00	if r1 == 0x4 goto +0x23 <LBB61_27>
    1049:	18 07 00 00 00 00 00 00 00 00 00 00 06 00 00 00	r7 = 0x600000000 ll
    1051:	05 00 37 00 00 00 00 00	goto +0x37 <LBB61_36>

00000000000020e0 <LBB61_19>:
    1052:	65 01 09 00 0e 00 00 00	if r1 s> 0xe goto +0x9 <LBB61_22>
    1053:	15 01 21 00 0d 00 00 00	if r1 == 0xd goto +0x21 <LBB61_32>
    1054:	18 07 00 00 00 00 00 00 00 00 00 00 0f 00 00 00	r7 = 0xf00000000 ll
    1056:	05 00 32 00 00 00 00 00	goto +0x32 <LBB61_36>

0000000000002108 <LBB61_10>:
    1057:	15 01 20 00 06 00 00 00	if r1 == 0x6 goto +0x20 <LBB61_28>
    1058:	15 01 22 00 07 00 00 00	if r1 == 0x7 goto +0x22 <LBB61_29>
    1059:	18 07 00 00 00 00 00 00 00 00 00 00 09 00 00 00	r7 = 0x900000000 ll
    1061:	05 00 2d 00 00 00 00 00	goto +0x2d <LBB61_36>

0000000000002130 <LBB61_22>:
    1062:	15 01 21 00 0f 00 00 00	if r1 == 0xf goto +0x21 <LBB61_33>
    1063:	15 01 23 00 10 00 00 00	if r1 == 0x10 goto +0x23 <LBB61_34>
    1064:	18 07 00 00 00 00 00 00 00 00 00 00 12 00 00 00	r7 = 0x1200000000 ll
    1066:	05 00 28 00 00 00 00 00	goto +0x28 <LBB61_36>

0000000000002158 <LBB61_5>:
    1067:	15 01 22 00 02 00 00 00	if r1 == 0x2 goto +0x22 <LBB61_26>
    1068:	18 07 00 00 00 00 00 00 00 00 00 00 04 00 00 00	r7 = 0x400000000 ll
    1070:	05 00 24 00 00 00 00 00	goto +0x24 <LBB61_36>

0000000000002178 <LBB61_17>:
    1071:	15 01 21 00 0b 00 00 00	if r1 == 0xb goto +0x21 <LBB61_31>
    1072:	18 07 00 00 00 00 00 00 00 00 00 00 0d 00 00 00	r7 = 0xd00000000 ll
    1074:	05 00 20 00 00 00 00 00	goto +0x20 <LBB61_36>

0000000000002198 <LBB61_25>:
    1075:	18 07 00 00 00 00 00 00 00 00 00 00 01 00 00 00	r7 = 0x100000000 ll
    1077:	61 62 04 00 00 00 00 00	r2 = *(u32 *)(r6 + 0x4)
    1078:	15 02 1c 00 00 00 00 00	if r2 == 0x0 goto +0x1c <LBB61_36>
    1079:	bf 27 00 00 00 00 00 00	r7 = r2
    1080:	05 00 1a 00 00 00 00 00	goto +0x1a <LBB61_36>

00000000000021c8 <LBB61_30>:
    1081:	18 07 00 00 00 00 00 00 00 00 00 00 0a 00 00 00	r7 = 0xa00000000 ll
    1083:	05 00 17 00 00 00 00 00	goto +0x17 <LBB61_36>

00000000000021e0 <LBB61_27>:
    1084:	18 07 00 00 00 00 00 00 00 00 00 00 05 00 00 00	r7 = 0x500000000 ll
    1086:	05 00 14 00 00 00 00 00	goto +0x14 <LBB61_36>

00000000000021f8 <LBB61_32>:
    1087:	18 07 00 00 00 00 00 00 00 00 00 00 0e 00 00 00	r7 = 0xe00000000 ll
    1089:	05 00 11 00 00 00 00 00	goto +0x11 <LBB61_36>

0000000000002210 <LBB61_28>:
    1090:	18 07 00 00 00 00 00 00 00 00 00 00 07 00 00 00	r7 = 0x700000000 ll
    1092:	05 00 0e 00 00 00 00 00	goto +0xe <LBB61_36>

0000000000002228 <LBB61_29>:
    1093:	18 07 00 00 00 00 00 00 00 00 00 00 08 00 00 00	r7 = 0x800000000 ll
    1095:	05 00 0b 00 00 00 00 00	goto +0xb <LBB61_36>

0000000000002240 <LBB61_33>:
    1096:	18 07 00 00 00 00 00 00 00 00 00 00 10 00 00 00	r7 = 0x1000000000 ll
    1098:	05 00 08 00 00 00 00 00	goto +0x8 <LBB61_36>

0000000000002258 <LBB61_34>:
    1099:	18 07 00 00 00 00 00 00 00 00 00 00 11 00 00 00	r7 = 0x1100000000 ll
    1101:	05 00 05 00 00 00 00 00	goto +0x5 <LBB61_36>

0000000000002270 <LBB61_26>:
    1102:	18 07 00 00 00 00 00 00 00 00 00 00 03 00 00 00	r7 = 0x300000000 ll
    1104:	05 00 02 00 00 00 00 00	goto +0x2 <LBB61_36>

0000000000002288 <LBB61_31>:
    1105:	18 07 00 00 00 00 00 00 00 00 00 00 0c 00 00 00	r7 = 0xc00000000 ll

0000000000002298 <LBB61_36>:
    1107:	55 01 05 00 0e 00 00 00	if r1 != 0xe goto +0x5 <LBB61_38>
    1108:	07 06 00 00 08 00 00 00	r6 += 0x8
    1109:	bf 61 00 00 00 00 00 00	r1 = r6
    1110:	85 10 00 00 2a 00 00 00	call 0x2a
    1111:	bf 61 00 00 00 00 00 00	r1 = r6
    1112:	85 10 00 00 7f ff ff ff	call -0x81

00000000000022c8 <LBB61_38>:
    1113:	bf 70 00 00 00 00 00 00	r0 = r7
    1114:	95 00 00 00 00 00 00 00	exit

00000000000022d8 <core::ptr::const_ptr::_$LT$impl$u20$$BP$const$u20$T$GT$::align_offset::he8cfb33cdb347f2a>:
    1115:	bf 23 00 00 00 00 00 00	r3 = r2
    1116:	77 03 00 00 01 00 00 00	r3 >>= 0x1
    1117:	18 04 00 00 55 55 55 55 00 00 00 00 55 55 55 55	r4 = 0x5555555555555555 ll
    1119:	5f 43 00 00 00 00 00 00	r3 &= r4
    1120:	bf 24 00 00 00 00 00 00	r4 = r2
    1121:	1f 34 00 00 00 00 00 00	r4 -= r3
    1122:	18 03 00 00 33 33 33 33 00 00 00 00 33 33 33 33	r3 = 0x3333333333333333 ll
    1124:	bf 45 00 00 00 00 00 00	r5 = r4
    1125:	5f 35 00 00 00 00 00 00	r5 &= r3
    1126:	77 04 00 00 02 00 00 00	r4 >>= 0x2
    1127:	5f 34 00 00 00 00 00 00	r4 &= r3
    1128:	0f 45 00 00 00 00 00 00	r5 += r4
    1129:	bf 53 00 00 00 00 00 00	r3 = r5
    1130:	77 03 00 00 04 00 00 00	r3 >>= 0x4
    1131:	0f 35 00 00 00 00 00 00	r5 += r3
    1132:	18 03 00 00 0f 0f 0f 0f 00 00 00 00 0f 0f 0f 0f	r3 = 0xf0f0f0f0f0f0f0f ll
    1134:	5f 35 00 00 00 00 00 00	r5 &= r3
    1135:	18 03 00 00 01 01 01 01 00 00 00 00 01 01 01 01	r3 = 0x101010101010101 ll
    1137:	2f 35 00 00 00 00 00 00	r5 *= r3
    1138:	77 05 00 00 38 00 00 00	r5 >>= 0x38
    1139:	15 05 07 00 01 00 00 00	if r5 == 0x1 goto +0x7 <LBB1_2>
    1140:	18 01 00 00 c4 9c 00 00 00 00 00 00 00 00 00 00	r1 = 0x9cc4 ll
    1142:	b7 02 00 00 29 00 00 00	r2 = 0x29
    1143:	18 03 00 00 38 aa 00 00 00 00 00 00 00 00 00 00	r3 = 0xaa38 ll
    1145:	85 10 00 00 f1 0b 00 00	call 0xbf1
    1146:	85 10 00 00 ff ff ff ff	call -0x1

00000000000023d8 <LBB1_2>:
    1147:	85 10 00 00 31 fe ff ff	call -0x1cf
    1148:	95 00 00 00 00 00 00 00	exit

00000000000023e8 <alloc::vec::Vec$LT$T$C$A$GT$::reserve::h38921662481ae9c1>:
    1149:	bf 23 00 00 00 00 00 00	r3 = r2
    1150:	79 12 10 00 00 00 00 00	r2 = *(u64 *)(r1 + 0x10)
    1151:	85 10 00 00 d5 fe ff ff	call -0x12b
    1152:	95 00 00 00 00 00 00 00	exit

0000000000002408 <_$LT$alloc..vec..Vec$LT$T$C$A$GT$$u20$as$u20$core..ops..drop..Drop$GT$::drop::he31c1e648526a06b>:
    1153:	95 00 00 00 00 00 00 00	exit

0000000000002410 <_$LT$alloc..vec..Vec$LT$T$C$A$GT$$u20$as$u20$core..ops..deref..Deref$GT$::deref::hfa21dcb771c21ee0>:
    1154:	79 23 10 00 00 00 00 00	r3 = *(u64 *)(r2 + 0x10)
    1155:	7b 31 08 00 00 00 00 00	*(u64 *)(r1 + 0x8) = r3
    1156:	79 22 00 00 00 00 00 00	r2 = *(u64 *)(r2 + 0x0)
    1157:	7b 21 00 00 00 00 00 00	*(u64 *)(r1 + 0x0) = r2
    1158:	95 00 00 00 00 00 00 00	exit

0000000000002438 <rust_begin_unwind>:
    1159:	bf 16 00 00 00 00 00 00	r6 = r1
    1160:	18 01 00 00 01 9d 00 00 00 00 00 00 00 00 00 00	r1 = 0x9d01 ll
    1162:	b7 02 00 00 17 00 00 00	r2 = 0x17
    1163:	85 10 00 00 03 00 00 00	call 0x3
    1164:	bf 61 00 00 00 00 00 00	r1 = r6
    1165:	85 10 00 00 03 00 00 00	call 0x3
    1166:	85 10 00 00 ff ff ff ff	call -0x1

0000000000002478 <std::sys::bpf::sol_log::h81a96014adcbd36f>:
    1167:	85 10 00 00 ff ff ff ff	call -0x1
    1168:	95 00 00 00 00 00 00 00	exit

0000000000002488 <std::sys::bpf::panic::h277a96aa040af534>:
    1169:	85 10 00 00 ff ff ff ff	call -0x1
    1170:	85 10 00 00 ff ff ff ff	call -0x1
    1171:	85 10 00 00 ff ff ff ff	call -0x1

00000000000024a0 <std::sys::bpf::abort_internal::hcb2e82f39f779c39>:
    1172:	85 10 00 00 ff ff ff ff	call -0x1
    1173:	85 10 00 00 ff ff ff ff	call -0x1

00000000000024b0 <rust_oom>:
    1174:	18 01 00 00 18 9d 00 00 00 00 00 00 00 00 00 00	r1 = 0x9d18 ll
    1176:	b7 02 00 00 2e 00 00 00	r2 = 0x2e
    1177:	85 10 00 00 f5 ff ff ff	call -0xb
    1178:	85 10 00 00 01 00 00 00	call 0x1
    1179:	85 10 00 00 ff ff ff ff	call -0x1

00000000000024e0 <std::process::abort::h35a00bb5605ac51a>:
    1180:	85 10 00 00 f7 ff ff ff	call -0x9
    1181:	85 10 00 00 ff ff ff ff	call -0x1

00000000000024f0 <alloc::raw_vec::RawVec$LT$T$C$A$GT$::try_reserve::he6859baeca23c758>:
    1182:	bf 27 00 00 00 00 00 00	r7 = r2
    1183:	bf 16 00 00 00 00 00 00	r6 = r1
    1184:	b7 08 00 00 00 00 00 00	r8 = 0x0
    1185:	79 71 08 00 00 00 00 00	r1 = *(u64 *)(r7 + 0x8)
    1186:	bf 12 00 00 00 00 00 00	r2 = r1
    1187:	1f 32 00 00 00 00 00 00	r2 -= r3
    1188:	3d 42 2d 00 00 00 00 00	if r2 >= r4 goto +0x2d <LBB5_15>
    1189:	bf 35 00 00 00 00 00 00	r5 = r3
    1190:	0f 45 00 00 00 00 00 00	r5 += r4
    1191:	b7 02 00 00 01 00 00 00	r2 = 0x1
    1192:	2d 53 01 00 00 00 00 00	if r3 > r5 goto +0x1 <LBB5_3>
    1193:	b7 02 00 00 00 00 00 00	r2 = 0x0

0000000000002550 <LBB5_3>:
    1194:	57 02 00 00 01 00 00 00	r2 &= 0x1
    1195:	55 02 0a 00 00 00 00 00	if r2 != 0x0 goto +0xa <LBB5_12>
    1196:	bf 12 00 00 00 00 00 00	r2 = r1
    1197:	67 02 00 00 01 00 00 00	r2 <<= 0x1
    1198:	2d 52 01 00 00 00 00 00	if r2 > r5 goto +0x1 <LBB5_6>
    1199:	bf 52 00 00 00 00 00 00	r2 = r5

0000000000002580 <LBB5_6>:
    1200:	25 02 01 00 08 00 00 00	if r2 > 0x8 goto +0x1 <LBB5_8>
    1201:	b7 02 00 00 08 00 00 00	r2 = 0x8

0000000000002590 <LBB5_8>:
    1202:	55 01 08 00 00 00 00 00	if r1 != 0x0 goto +0x8 <LBB5_10>
    1203:	b7 01 00 00 00 00 00 00	r1 = 0x0
    1204:	7b 1a e8 ff 00 00 00 00	*(u64 *)(r10 - 0x18) = r1
    1205:	05 00 0a 00 00 00 00 00	goto +0xa <LBB5_11>

00000000000025b0 <LBB5_12>:
    1206:	b7 01 00 00 00 00 00 00	r1 = 0x0
    1207:	7b 16 10 00 00 00 00 00	*(u64 *)(r6 + 0x10) = r1
    1208:	7b 56 08 00 00 00 00 00	*(u64 *)(r6 + 0x8) = r5
    1209:	b7 08 00 00 01 00 00 00	r8 = 0x1
    1210:	05 00 17 00 00 00 00 00	goto +0x17 <LBB5_15>

00000000000025d8 <LBB5_10>:
    1211:	79 73 00 00 00 00 00 00	r3 = *(u64 *)(r7 + 0x0)
    1212:	b7 04 00 00 01 00 00 00	r4 = 0x1
    1213:	7b 4a f8 ff 00 00 00 00	*(u64 *)(r10 - 0x8) = r4
    1214:	7b 1a f0 ff 00 00 00 00	*(u64 *)(r10 - 0x10) = r1
    1215:	7b 3a e8 ff 00 00 00 00	*(u64 *)(r10 - 0x18) = r3

0000000000002600 <LBB5_11>:
    1216:	bf a1 00 00 00 00 00 00	r1 = r10
    1217:	07 01 00 00 d0 ff ff ff	r1 += -0x30
    1218:	b7 08 00 00 01 00 00 00	r8 = 0x1
    1219:	bf a4 00 00 00 00 00 00	r4 = r10
    1220:	07 04 00 00 e8 ff ff ff	r4 += -0x18
    1221:	b7 03 00 00 01 00 00 00	r3 = 0x1
    1222:	85 10 00 00 0d 00 00 00	call 0xd
    1223:	79 a2 e0 ff 00 00 00 00	r2 = *(u64 *)(r10 - 0x20)
    1224:	79 a1 d8 ff 00 00 00 00	r1 = *(u64 *)(r10 - 0x28)
    1225:	79 a3 d0 ff 00 00 00 00	r3 = *(u64 *)(r10 - 0x30)
    1226:	15 03 01 00 01 00 00 00	if r3 == 0x1 goto +0x1 <LBB5_14>
    1227:	05 00 03 00 00 00 00 00	goto +0x3 <LBB5_13>

0000000000002660 <LBB5_14>:
    1228:	7b 26 10 00 00 00 00 00	*(u64 *)(r6 + 0x10) = r2
    1229:	7b 16 08 00 00 00 00 00	*(u64 *)(r6 + 0x8) = r1
    1230:	05 00 03 00 00 00 00 00	goto +0x3 <LBB5_15>

0000000000002678 <LBB5_13>:
    1231:	7b 27 08 00 00 00 00 00	*(u64 *)(r7 + 0x8) = r2
    1232:	7b 17 00 00 00 00 00 00	*(u64 *)(r7 + 0x0) = r1
    1233:	b7 08 00 00 00 00 00 00	r8 = 0x0

0000000000002690 <LBB5_15>:
    1234:	7b 86 00 00 00 00 00 00	*(u64 *)(r6 + 0x0) = r8
    1235:	95 00 00 00 00 00 00 00	exit

00000000000026a0 <alloc::raw_vec::finish_grow::h924db28fbd25e083>:
    1236:	bf 38 00 00 00 00 00 00	r8 = r3
    1237:	bf 27 00 00 00 00 00 00	r7 = r2
    1238:	bf 16 00 00 00 00 00 00	r6 = r1
    1239:	15 08 10 00 00 00 00 00	if r8 == 0x0 goto +0x10 <LBB8_11>
    1240:	79 41 00 00 00 00 00 00	r1 = *(u64 *)(r4 + 0x0)
    1241:	55 01 06 00 00 00 00 00	if r1 != 0x0 goto +0x6 <LBB8_4>
    1242:	15 07 1a 00 00 00 00 00	if r7 == 0x0 goto +0x1a <LBB8_9>
    1243:	bf 71 00 00 00 00 00 00	r1 = r7
    1244:	bf 82 00 00 00 00 00 00	r2 = r8
    1245:	85 10 00 00 db fc ff ff	call -0x325
    1246:	15 00 12 00 00 00 00 00	if r0 == 0x0 goto +0x12 <LBB8_8>
    1247:	05 00 16 00 00 00 00 00	goto +0x16 <LBB8_10>

0000000000002700 <LBB8_4>:
    1248:	79 42 08 00 00 00 00 00	r2 = *(u64 *)(r4 + 0x8)
    1249:	55 02 0a 00 00 00 00 00	if r2 != 0x0 goto +0xa <LBB8_7>
    1250:	15 07 12 00 00 00 00 00	if r7 == 0x0 goto +0x12 <LBB8_9>
    1251:	bf 71 00 00 00 00 00 00	r1 = r7
    1252:	bf 82 00 00 00 00 00 00	r2 = r8
    1253:	85 10 00 00 d3 fc ff ff	call -0x32d
    1254:	15 00 0a 00 00 00 00 00	if r0 == 0x0 goto +0xa <LBB8_8>
    1255:	05 00 0e 00 00 00 00 00	goto +0xe <LBB8_10>

0000000000002740 <LBB8_11>:
    1256:	7b 76 08 00 00 00 00 00	*(u64 *)(r6 + 0x8) = r7
    1257:	b7 01 00 00 01 00 00 00	r1 = 0x1
    1258:	b7 07 00 00 00 00 00 00	r7 = 0x0
    1259:	05 00 0c 00 00 00 00 00	goto +0xc <LBB8_12>

0000000000002760 <LBB8_7>:
    1260:	bf 83 00 00 00 00 00 00	r3 = r8
    1261:	bf 74 00 00 00 00 00 00	r4 = r7
    1262:	85 10 00 00 ce fc ff ff	call -0x332
    1263:	15 00 01 00 00 00 00 00	if r0 == 0x0 goto +0x1 <LBB8_8>
    1264:	05 00 05 00 00 00 00 00	goto +0x5 <LBB8_10>

0000000000002788 <LBB8_8>:
    1265:	7b 76 08 00 00 00 00 00	*(u64 *)(r6 + 0x8) = r7
    1266:	b7 01 00 00 01 00 00 00	r1 = 0x1
    1267:	bf 87 00 00 00 00 00 00	r7 = r8
    1268:	05 00 03 00 00 00 00 00	goto +0x3 <LBB8_12>

00000000000027a8 <LBB8_9>:
    1269:	bf 80 00 00 00 00 00 00	r0 = r8

00000000000027b0 <LBB8_10>:
    1270:	7b 06 08 00 00 00 00 00	*(u64 *)(r6 + 0x8) = r0
    1271:	b7 01 00 00 00 00 00 00	r1 = 0x0

00000000000027c0 <LBB8_12>:
    1272:	7b 16 00 00 00 00 00 00	*(u64 *)(r6 + 0x0) = r1
    1273:	7b 76 10 00 00 00 00 00	*(u64 *)(r6 + 0x10) = r7
    1274:	95 00 00 00 00 00 00 00	exit

00000000000027d8 <alloc::raw_vec::capacity_overflow::h58febb711445c8c1>:
    1275:	18 01 00 00 5a 9d 00 00 00 00 00 00 00 00 00 00	r1 = 0x9d5a ll
    1277:	b7 02 00 00 11 00 00 00	r2 = 0x11
    1278:	18 03 00 00 50 aa 00 00 00 00 00 00 00 00 00 00	r3 = 0xaa50 ll
    1280:	85 10 00 00 6a 0b 00 00	call 0xb6a
    1281:	85 10 00 00 ff ff ff ff	call -0x1

0000000000002810 <core::ptr::drop_in_place$LT$$RF$mut$u20$alloc..string..String$GT$::ha14cb971c8baf748 (.llvm.6801215918387568529)>:
    1282:	95 00 00 00 00 00 00 00	exit

0000000000002818 <_$LT$$RF$mut$u20$W$u20$as$u20$core..fmt..Write$GT$::write_char::hfb21f034484916b5 (.llvm.6801215918387568529)>:
    1283:	bf 27 00 00 00 00 00 00	r7 = r2
    1284:	79 16 00 00 00 00 00 00	r6 = *(u64 *)(r1 + 0x0)
    1285:	bf 71 00 00 00 00 00 00	r1 = r7
    1286:	67 01 00 00 20 00 00 00	r1 <<= 0x20
    1287:	77 01 00 00 20 00 00 00	r1 >>= 0x20
    1288:	b7 02 00 00 80 00 00 00	r2 = 0x80
    1289:	2d 12 17 00 00 00 00 00	if r2 > r1 goto +0x17 <LBB2_4>
    1290:	b7 02 00 00 00 08 00 00	r2 = 0x800
    1291:	2d 12 22 00 00 00 00 00	if r2 > r1 goto +0x22 <LBB2_8>
    1292:	bf 71 00 00 00 00 00 00	r1 = r7
    1293:	67 01 00 00 20 00 00 00	r1 <<= 0x20
    1294:	77 01 00 00 20 00 00 00	r1 >>= 0x20
    1295:	b7 02 00 00 00 00 01 00	r2 = 0x10000
    1296:	2d 12 01 00 00 00 00 00	if r2 > r1 goto +0x1 <LBB2_3>
    1297:	05 00 2e 00 00 00 00 00	goto +0x2e <LBB2_11>

0000000000002890 <LBB2_3>:
    1298:	b7 02 00 00 00 00 00 00	r2 = 0x0
    1299:	63 2a e4 ff 00 00 00 00	*(u32 *)(r10 - 0x1c) = r2
    1300:	57 07 00 00 3f 00 00 00	r7 &= 0x3f
    1301:	47 07 00 00 80 00 00 00	r7 |= 0x80
    1302:	73 7a e6 ff 00 00 00 00	*(u8 *)(r10 - 0x1a) = r7
    1303:	bf 12 00 00 00 00 00 00	r2 = r1
    1304:	77 02 00 00 0c 00 00 00	r2 >>= 0xc
    1305:	47 02 00 00 e0 00 00 00	r2 |= 0xe0
    1306:	73 2a e4 ff 00 00 00 00	*(u8 *)(r10 - 0x1c) = r2
    1307:	77 01 00 00 06 00 00 00	r1 >>= 0x6
    1308:	57 01 00 00 3f 00 00 00	r1 &= 0x3f
    1309:	47 01 00 00 80 00 00 00	r1 |= 0x80
    1310:	73 1a e5 ff 00 00 00 00	*(u8 *)(r10 - 0x1b) = r1
    1311:	b7 07 00 00 03 00 00 00	r7 = 0x3
    1312:	05 00 30 00 00 00 00 00	goto +0x30 <LBB2_12>

0000000000002908 <LBB2_4>:
    1313:	79 63 10 00 00 00 00 00	r3 = *(u64 *)(r6 + 0x10)
    1314:	79 61 08 00 00 00 00 00	r1 = *(u64 *)(r6 + 0x8)
    1315:	5d 13 16 00 00 00 00 00	if r3 != r1 goto +0x16 <LBB2_10>
    1316:	bf a1 00 00 00 00 00 00	r1 = r10
    1317:	07 01 00 00 e8 ff ff ff	r1 += -0x18
    1318:	bf 62 00 00 00 00 00 00	r2 = r6
    1319:	b7 04 00 00 01 00 00 00	r4 = 0x1
    1320:	85 10 00 00 75 ff ff ff	call -0x8b
    1321:	79 a1 e8 ff 00 00 00 00	r1 = *(u64 *)(r10 - 0x18)
    1322:	55 01 0e 00 01 00 00 00	if r1 != 0x1 goto +0xe <LBB2_9>
    1323:	79 a2 f8 ff 00 00 00 00	r2 = *(u64 *)(r10 - 0x8)
    1324:	55 02 3d 00 00 00 00 00	if r2 != 0x0 goto +0x3d <LBB2_17>
    1325:	05 00 2f 00 00 00 00 00	goto +0x2f <LBB2_14>

0000000000002970 <LBB2_8>:
    1326:	b7 01 00 00 00 00 00 00	r1 = 0x0
    1327:	63 1a e4 ff 00 00 00 00	*(u32 *)(r10 - 0x1c) = r1
    1328:	bf 71 00 00 00 00 00 00	r1 = r7
    1329:	57 01 00 00 3f 00 00 00	r1 &= 0x3f
    1330:	47 01 00 00 80 00 00 00	r1 |= 0x80
    1331:	73 1a e5 ff 00 00 00 00	*(u8 *)(r10 - 0x1b) = r1
    1332:	77 07 00 00 06 00 00 00	r7 >>= 0x6
    1333:	47 07 00 00 c0 00 00 00	r7 |= 0xc0
    1334:	73 7a e4 ff 00 00 00 00	*(u8 *)(r10 - 0x1c) = r7
    1335:	b7 07 00 00 02 00 00 00	r7 = 0x2
    1336:	05 00 18 00 00 00 00 00	goto +0x18 <LBB2_12>

00000000000029c8 <LBB2_9>:
    1337:	79 63 10 00 00 00 00 00	r3 = *(u64 *)(r6 + 0x10)

00000000000029d0 <LBB2_10>:
    1338:	79 61 00 00 00 00 00 00	r1 = *(u64 *)(r6 + 0x0)
    1339:	0f 31 00 00 00 00 00 00	r1 += r3
    1340:	73 71 00 00 00 00 00 00	*(u8 *)(r1 + 0x0) = r7
    1341:	79 61 10 00 00 00 00 00	r1 = *(u64 *)(r6 + 0x10)
    1342:	07 01 00 00 01 00 00 00	r1 += 0x1
    1343:	05 00 27 00 00 00 00 00	goto +0x27 <LBB2_16>

0000000000002a00 <LBB2_11>:
    1344:	57 07 00 00 3f 00 00 00	r7 &= 0x3f
    1345:	47 07 00 00 80 00 00 00	r7 |= 0x80
    1346:	73 7a e7 ff 00 00 00 00	*(u8 *)(r10 - 0x19) = r7
    1347:	bf 12 00 00 00 00 00 00	r2 = r1
    1348:	77 02 00 00 12 00 00 00	r2 >>= 0x12
    1349:	47 02 00 00 f0 00 00 00	r2 |= 0xf0
    1350:	73 2a e4 ff 00 00 00 00	*(u8 *)(r10 - 0x1c) = r2
    1351:	bf 12 00 00 00 00 00 00	r2 = r1
    1352:	77 02 00 00 06 00 00 00	r2 >>= 0x6
    1353:	57 02 00 00 3f 00 00 00	r2 &= 0x3f
    1354:	47 02 00 00 80 00 00 00	r2 |= 0x80
    1355:	73 2a e6 ff 00 00 00 00	*(u8 *)(r10 - 0x1a) = r2
    1356:	77 01 00 00 0c 00 00 00	r1 >>= 0xc
    1357:	57 01 00 00 3f 00 00 00	r1 &= 0x3f
    1358:	47 01 00 00 80 00 00 00	r1 |= 0x80
    1359:	73 1a e5 ff 00 00 00 00	*(u8 *)(r10 - 0x1b) = r1
    1360:	b7 07 00 00 04 00 00 00	r7 = 0x4

0000000000002a88 <LBB2_12>:
    1361:	bf a8 00 00 00 00 00 00	r8 = r10
    1362:	07 08 00 00 e4 ff ff ff	r8 += -0x1c
    1363:	79 63 10 00 00 00 00 00	r3 = *(u64 *)(r6 + 0x10)
    1364:	bf a1 00 00 00 00 00 00	r1 = r10
    1365:	07 01 00 00 e8 ff ff ff	r1 += -0x18
    1366:	bf 62 00 00 00 00 00 00	r2 = r6
    1367:	bf 74 00 00 00 00 00 00	r4 = r7
    1368:	85 10 00 00 45 ff ff ff	call -0xbb
    1369:	79 a1 e8 ff 00 00 00 00	r1 = *(u64 *)(r10 - 0x18)
    1370:	55 01 04 00 01 00 00 00	if r1 != 0x1 goto +0x4 <LBB2_15>
    1371:	79 a2 f8 ff 00 00 00 00	r2 = *(u64 *)(r10 - 0x8)
    1372:	55 02 0d 00 00 00 00 00	if r2 != 0x0 goto +0xd <LBB2_17>

0000000000002ae8 <LBB2_14>:
    1373:	85 10 00 00 9d ff ff ff	call -0x63
    1374:	85 10 00 00 ff ff ff ff	call -0x1

0000000000002af8 <LBB2_15>:
    1375:	79 62 10 00 00 00 00 00	r2 = *(u64 *)(r6 + 0x10)
    1376:	79 61 00 00 00 00 00 00	r1 = *(u64 *)(r6 + 0x0)
    1377:	0f 21 00 00 00 00 00 00	r1 += r2
    1378:	bf 82 00 00 00 00 00 00	r2 = r8
    1379:	bf 73 00 00 00 00 00 00	r3 = r7
    1380:	85 10 00 00 94 0b 00 00	call 0xb94
    1381:	79 61 10 00 00 00 00 00	r1 = *(u64 *)(r6 + 0x10)
    1382:	0f 71 00 00 00 00 00 00	r1 += r7

0000000000002b38 <LBB2_16>:
    1383:	7b 16 10 00 00 00 00 00	*(u64 *)(r6 + 0x10) = r1
    1384:	b7 00 00 00 00 00 00 00	r0 = 0x0
    1385:	95 00 00 00 00 00 00 00	exit

0000000000002b50 <LBB2_17>:
    1386:	79 a1 f0 ff 00 00 00 00	r1 = *(u64 *)(r10 - 0x10)
    1387:	85 10 00 00 34 00 00 00	call 0x34
    1388:	85 10 00 00 ff ff ff ff	call -0x1

0000000000002b68 <_$LT$$RF$mut$u20$W$u20$as$u20$core..fmt..Write$GT$::write_fmt::h4938608afd3fb1c7 (.llvm.6801215918387568529)>:
    1389:	79 11 00 00 00 00 00 00	r1 = *(u64 *)(r1 + 0x0)
    1390:	7b 1a c8 ff 00 00 00 00	*(u64 *)(r10 - 0x38) = r1
    1391:	79 21 28 00 00 00 00 00	r1 = *(u64 *)(r2 + 0x28)
    1392:	7b 1a f8 ff 00 00 00 00	*(u64 *)(r10 - 0x8) = r1
    1393:	79 21 20 00 00 00 00 00	r1 = *(u64 *)(r2 + 0x20)
    1394:	7b 1a f0 ff 00 00 00 00	*(u64 *)(r10 - 0x10) = r1
    1395:	79 21 18 00 00 00 00 00	r1 = *(u64 *)(r2 + 0x18)
    1396:	7b 1a e8 ff 00 00 00 00	*(u64 *)(r10 - 0x18) = r1
    1397:	79 21 10 00 00 00 00 00	r1 = *(u64 *)(r2 + 0x10)
    1398:	7b 1a e0 ff 00 00 00 00	*(u64 *)(r10 - 0x20) = r1
    1399:	79 21 08 00 00 00 00 00	r1 = *(u64 *)(r2 + 0x8)
    1400:	7b 1a d8 ff 00 00 00 00	*(u64 *)(r10 - 0x28) = r1
    1401:	79 21 00 00 00 00 00 00	r1 = *(u64 *)(r2 + 0x0)
    1402:	7b 1a d0 ff 00 00 00 00	*(u64 *)(r10 - 0x30) = r1
    1403:	bf a1 00 00 00 00 00 00	r1 = r10
    1404:	07 01 00 00 c8 ff ff ff	r1 += -0x38
    1405:	bf a3 00 00 00 00 00 00	r3 = r10
    1406:	07 03 00 00 d0 ff ff ff	r3 += -0x30
    1407:	18 02 00 00 68 aa 00 00 00 00 00 00 00 00 00 00	r2 = 0xaa68 ll
    1409:	85 10 00 00 42 05 00 00	call 0x542
    1410:	95 00 00 00 00 00 00 00	exit

0000000000002c18 <_$LT$$RF$mut$u20$W$u20$as$u20$core..fmt..Write$GT$::write_str::hac09cc451e51bf7e (.llvm.6801215918387568529)>:
    1411:	bf 36 00 00 00 00 00 00	r6 = r3
    1412:	bf 28 00 00 00 00 00 00	r8 = r2
    1413:	79 17 00 00 00 00 00 00	r7 = *(u64 *)(r1 + 0x0)
    1414:	79 73 10 00 00 00 00 00	r3 = *(u64 *)(r7 + 0x10)
    1415:	bf a1 00 00 00 00 00 00	r1 = r10
    1416:	07 01 00 00 e8 ff ff ff	r1 += -0x18
    1417:	bf 72 00 00 00 00 00 00	r2 = r7
    1418:	bf 64 00 00 00 00 00 00	r4 = r6
    1419:	85 10 00 00 12 ff ff ff	call -0xee
    1420:	79 a1 e8 ff 00 00 00 00	r1 = *(u64 *)(r10 - 0x18)
    1421:	55 01 04 00 01 00 00 00	if r1 != 0x1 goto +0x4 <LBB4_4>
    1422:	79 a2 f8 ff 00 00 00 00	r2 = *(u64 *)(r10 - 0x8)
    1423:	55 02 0d 00 00 00 00 00	if r2 != 0x0 goto +0xd <LBB4_3>
    1424:	85 10 00 00 6a ff ff ff	call -0x96
    1425:	85 10 00 00 ff ff ff ff	call -0x1

0000000000002c90 <LBB4_4>:
    1426:	79 72 10 00 00 00 00 00	r2 = *(u64 *)(r7 + 0x10)
    1427:	79 71 00 00 00 00 00 00	r1 = *(u64 *)(r7 + 0x0)
    1428:	0f 21 00 00 00 00 00 00	r1 += r2
    1429:	bf 82 00 00 00 00 00 00	r2 = r8
    1430:	bf 63 00 00 00 00 00 00	r3 = r6
    1431:	85 10 00 00 61 0b 00 00	call 0xb61
    1432:	79 71 10 00 00 00 00 00	r1 = *(u64 *)(r7 + 0x10)
    1433:	0f 61 00 00 00 00 00 00	r1 += r6
    1434:	7b 17 10 00 00 00 00 00	*(u64 *)(r7 + 0x10) = r1
    1435:	b7 00 00 00 00 00 00 00	r0 = 0x0
    1436:	95 00 00 00 00 00 00 00	exit

0000000000002ce8 <LBB4_3>:
    1437:	79 a1 f0 ff 00 00 00 00	r1 = *(u64 *)(r10 - 0x10)
    1438:	85 10 00 00 01 00 00 00	call 0x1
    1439:	85 10 00 00 ff ff ff ff	call -0x1

0000000000002d00 <alloc::alloc::handle_alloc_error::h32e7faf57d5b4d01>:
    1440:	85 10 00 00 20 fc ff ff	call -0x3e0
    1441:	85 10 00 00 ff ff ff ff	call -0x1

0000000000002d10 <core::ptr::drop_in_place$LT$core..fmt..Error$GT$::h819db8b783f75509>:
    1442:	95 00 00 00 00 00 00 00	exit

0000000000002d18 <alloc::fmt::format::hfa64b19aa79a70c1>:
    1443:	bf 26 00 00 00 00 00 00	r6 = r2
    1444:	bf 17 00 00 00 00 00 00	r7 = r1
    1445:	b7 08 00 00 00 00 00 00	r8 = 0x0
    1446:	79 61 00 00 00 00 00 00	r1 = *(u64 *)(r6 + 0x0)
    1447:	79 62 08 00 00 00 00 00	r2 = *(u64 *)(r6 + 0x8)
    1448:	bf 23 00 00 00 00 00 00	r3 = r2
    1449:	67 03 00 00 04 00 00 00	r3 <<= 0x4
    1450:	15 03 09 00 00 00 00 00	if r3 == 0x0 goto +0x9 <LBB2_3>
    1451:	b7 05 00 00 00 00 00 00	r5 = 0x0
    1452:	bf 14 00 00 00 00 00 00	r4 = r1
    1453:	07 04 00 00 08 00 00 00	r4 += 0x8

0000000000002d70 <LBB2_2>:
    1454:	79 48 00 00 00 00 00 00	r8 = *(u64 *)(r4 + 0x0)
    1455:	0f 58 00 00 00 00 00 00	r8 += r5
    1456:	07 04 00 00 10 00 00 00	r4 += 0x10
    1457:	07 03 00 00 f0 ff ff ff	r3 += -0x10
    1458:	bf 85 00 00 00 00 00 00	r5 = r8
    1459:	55 03 fa ff 00 00 00 00	if r3 != 0x0 goto -0x6 <LBB2_2>

0000000000002da0 <LBB2_3>:
    1460:	79 63 28 00 00 00 00 00	r3 = *(u64 *)(r6 + 0x28)
    1461:	15 03 36 00 00 00 00 00	if r3 == 0x0 goto +0x36 <LBB2_11>
    1462:	15 02 41 00 00 00 00 00	if r2 == 0x0 goto +0x41 <LBB2_10>
    1463:	25 08 04 00 0f 00 00 00	if r8 > 0xf goto +0x4 <LBB2_7>
    1464:	b7 00 00 00 01 00 00 00	r0 = 0x1
    1465:	b7 02 00 00 00 00 00 00	r2 = 0x0
    1466:	79 11 08 00 00 00 00 00	r1 = *(u64 *)(r1 + 0x8)
    1467:	15 01 0b 00 00 00 00 00	if r1 == 0x0 goto +0xb <LBB2_14>

0000000000002de0 <LBB2_7>:
    1468:	bf 81 00 00 00 00 00 00	r1 = r8
    1469:	0f 11 00 00 00 00 00 00	r1 += r1
    1470:	b7 02 00 00 00 00 00 00	r2 = 0x0
    1471:	b7 00 00 00 01 00 00 00	r0 = 0x1
    1472:	b7 03 00 00 01 00 00 00	r3 = 0x1
    1473:	2d 18 01 00 00 00 00 00	if r8 > r1 goto +0x1 <LBB2_9>
    1474:	b7 03 00 00 00 00 00 00	r3 = 0x0

0000000000002e18 <LBB2_9>:
    1475:	57 03 00 00 01 00 00 00	r3 &= 0x1
    1476:	bf 18 00 00 00 00 00 00	r8 = r1
    1477:	55 03 01 00 00 00 00 00	if r3 != 0x0 goto +0x1 <LBB2_14>
    1478:	05 00 25 00 00 00 00 00	goto +0x25 <LBB2_11>

0000000000002e38 <LBB2_14>:
    1479:	b7 01 00 00 00 00 00 00	r1 = 0x0
    1480:	7b 17 10 00 00 00 00 00	*(u64 *)(r7 + 0x10) = r1
    1481:	7b 27 08 00 00 00 00 00	*(u64 *)(r7 + 0x8) = r2
    1482:	7b 07 00 00 00 00 00 00	*(u64 *)(r7 + 0x0) = r0
    1483:	7b 7a c8 ff 00 00 00 00	*(u64 *)(r10 - 0x38) = r7
    1484:	79 61 28 00 00 00 00 00	r1 = *(u64 *)(r6 + 0x28)
    1485:	7b 1a f8 ff 00 00 00 00	*(u64 *)(r10 - 0x8) = r1
    1486:	79 61 20 00 00 00 00 00	r1 = *(u64 *)(r6 + 0x20)
    1487:	7b 1a f0 ff 00 00 00 00	*(u64 *)(r10 - 0x10) = r1
    1488:	79 61 18 00 00 00 00 00	r1 = *(u64 *)(r6 + 0x18)
    1489:	7b 1a e8 ff 00 00 00 00	*(u64 *)(r10 - 0x18) = r1
    1490:	79 61 10 00 00 00 00 00	r1 = *(u64 *)(r6 + 0x10)
    1491:	7b 1a e0 ff 00 00 00 00	*(u64 *)(r10 - 0x20) = r1
    1492:	79 61 08 00 00 00 00 00	r1 = *(u64 *)(r6 + 0x8)
    1493:	7b 1a d8 ff 00 00 00 00	*(u64 *)(r10 - 0x28) = r1
    1494:	79 61 00 00 00 00 00 00	r1 = *(u64 *)(r6 + 0x0)
    1495:	7b 1a d0 ff 00 00 00 00	*(u64 *)(r10 - 0x30) = r1
    1496:	bf a1 00 00 00 00 00 00	r1 = r10
    1497:	07 01 00 00 c8 ff ff ff	r1 += -0x38
    1498:	bf a3 00 00 00 00 00 00	r3 = r10
    1499:	07 03 00 00 d0 ff ff ff	r3 += -0x30
    1500:	18 02 00 00 68 aa 00 00 00 00 00 00 00 00 00 00	r2 = 0xaa68 ll
    1502:	85 10 00 00 e5 04 00 00	call 0x4e5
    1503:	15 00 0b 00 00 00 00 00	if r0 == 0x0 goto +0xb <LBB2_16>
    1504:	bf a3 00 00 00 00 00 00	r3 = r10
    1505:	07 03 00 00 d0 ff ff ff	r3 += -0x30
    1506:	18 01 00 00 79 9d 00 00 00 00 00 00 00 00 00 00	r1 = 0x9d79 ll
    1508:	b7 02 00 00 33 00 00 00	r2 = 0x33
    1509:	18 04 00 00 b0 aa 00 00 00 00 00 00 00 00 00 00	r4 = 0xaab0 ll
    1511:	18 05 00 00 d0 aa 00 00 00 00 00 00 00 00 00 00	r5 = 0xaad0 ll
    1513:	85 10 00 00 4f 03 00 00	call 0x34f
    1514:	85 10 00 00 ff ff ff ff	call -0x1

0000000000002f58 <LBB2_16>:
    1515:	95 00 00 00 00 00 00 00	exit

0000000000002f60 <LBB2_11>:
    1516:	b7 00 00 00 01 00 00 00	r0 = 0x1
    1517:	b7 02 00 00 00 00 00 00	r2 = 0x0
    1518:	15 08 d8 ff 00 00 00 00	if r8 == 0x0 goto -0x28 <LBB2_14>
    1519:	bf 81 00 00 00 00 00 00	r1 = r8
    1520:	b7 02 00 00 01 00 00 00	r2 = 0x1
    1521:	85 10 00 00 c7 fb ff ff	call -0x439
    1522:	bf 82 00 00 00 00 00 00	r2 = r8
    1523:	55 00 d3 ff 00 00 00 00	if r0 != 0x0 goto -0x2d <LBB2_14>
    1524:	bf 81 00 00 00 00 00 00	r1 = r8
    1525:	b7 02 00 00 01 00 00 00	r2 = 0x1
    1526:	85 10 00 00 a9 ff ff ff	call -0x57
    1527:	85 10 00 00 ff ff ff ff	call -0x1

0000000000002fc0 <LBB2_10>:
    1528:	b7 01 00 00 00 00 00 00	r1 = 0x0
    1529:	b7 02 00 00 00 00 00 00	r2 = 0x0
    1530:	18 03 00 00 98 aa 00 00 00 00 00 00 00 00 00 00	r3 = 0xaa98 ll
    1532:	85 10 00 00 80 0a 00 00	call 0xa80
    1533:	85 10 00 00 ff ff ff ff	call -0x1

0000000000002ff0 <__rg_oom>:
    1534:	85 10 00 00 97 fe ff ff	call -0x169
    1535:	85 10 00 00 ff ff ff ff	call -0x1

0000000000003000 <core::fmt::num::imp::_$LT$impl$u20$core..fmt..Display$u20$for$u20$u32$GT$::fmt::hb0ceb3b6b212cb0f>:
    1536:	b7 03 00 00 27 00 00 00	r3 = 0x27
    1537:	61 11 00 00 00 00 00 00	r1 = *(u32 *)(r1 + 0x0)
    1538:	b7 04 00 00 10 27 00 00	r4 = 0x2710
    1539:	2d 14 20 00 00 00 00 00	if r4 > r1 goto +0x20 <LBB50_4>
    1540:	b7 03 00 00 00 00 00 00	r3 = 0x0

0000000000003028 <LBB50_2>:
    1541:	bf 14 00 00 00 00 00 00	r4 = r1
    1542:	37 01 00 00 10 27 00 00	r1 /= 0x2710
    1543:	bf 15 00 00 00 00 00 00	r5 = r1
    1544:	27 05 00 00 10 27 00 00	r5 *= 0x2710
    1545:	bf 40 00 00 00 00 00 00	r0 = r4
    1546:	1f 50 00 00 00 00 00 00	r0 -= r5
    1547:	bf 05 00 00 00 00 00 00	r5 = r0
    1548:	57 05 00 00 ff ff 00 00	r5 &= 0xffff
    1549:	37 05 00 00 64 00 00 00	r5 /= 0x64
    1550:	bf 56 00 00 00 00 00 00	r6 = r5
    1551:	27 06 00 00 64 00 00 00	r6 *= 0x64
    1552:	1f 60 00 00 00 00 00 00	r0 -= r6
    1553:	bf a6 00 00 00 00 00 00	r6 = r10
    1554:	07 06 00 00 d9 ff ff ff	r6 += -0x27
    1555:	0f 36 00 00 00 00 00 00	r6 += r3
    1556:	67 05 00 00 01 00 00 00	r5 <<= 0x1
    1557:	18 07 00 00 ec 9d 00 00 00 00 00 00 00 00 00 00	r7 = 0x9dec ll
    1559:	0f 57 00 00 00 00 00 00	r7 += r5
    1560:	69 75 00 00 00 00 00 00	r5 = *(u16 *)(r7 + 0x0)
    1561:	6b 56 23 00 00 00 00 00	*(u16 *)(r6 + 0x23) = r5
    1562:	57 00 00 00 ff ff 00 00	r0 &= 0xffff
    1563:	67 00 00 00 01 00 00 00	r0 <<= 0x1
    1564:	18 05 00 00 ec 9d 00 00 00 00 00 00 00 00 00 00	r5 = 0x9dec ll
    1566:	0f 05 00 00 00 00 00 00	r5 += r0
    1567:	69 55 00 00 00 00 00 00	r5 = *(u16 *)(r5 + 0x0)
    1568:	6b 56 25 00 00 00 00 00	*(u16 *)(r6 + 0x25) = r5
    1569:	07 03 00 00 fc ff ff ff	r3 += -0x4
    1570:	25 04 e2 ff ff e0 f5 05	if r4 > 0x5f5e0ff goto -0x1e <LBB50_2>
    1571:	07 03 00 00 27 00 00 00	r3 += 0x27

0000000000003120 <LBB50_4>:
    1572:	25 01 01 00 63 00 00 00	if r1 > 0x63 goto +0x1 <LBB50_5>
    1573:	05 00 12 00 00 00 00 00	goto +0x12 <LBB50_6>

0000000000003130 <LBB50_5>:
    1574:	bf 14 00 00 00 00 00 00	r4 = r1
    1575:	57 04 00 00 ff ff 00 00	r4 &= 0xffff
    1576:	37 04 00 00 64 00 00 00	r4 /= 0x64
    1577:	bf 45 00 00 00 00 00 00	r5 = r4
    1578:	27 05 00 00 64 00 00 00	r5 *= 0x64
    1579:	1f 51 00 00 00 00 00 00	r1 -= r5
    1580:	57 01 00 00 ff ff 00 00	r1 &= 0xffff
    1581:	67 01 00 00 01 00 00 00	r1 <<= 0x1
    1582:	18 05 00 00 ec 9d 00 00 00 00 00 00 00 00 00 00	r5 = 0x9dec ll
    1584:	0f 15 00 00 00 00 00 00	r5 += r1
    1585:	07 03 00 00 fe ff ff ff	r3 += -0x2
    1586:	bf a1 00 00 00 00 00 00	r1 = r10
    1587:	07 01 00 00 d9 ff ff ff	r1 += -0x27
    1588:	0f 31 00 00 00 00 00 00	r1 += r3
    1589:	69 55 00 00 00 00 00 00	r5 = *(u16 *)(r5 + 0x0)
    1590:	6b 51 00 00 00 00 00 00	*(u16 *)(r1 + 0x0) = r5
    1591:	bf 41 00 00 00 00 00 00	r1 = r4

00000000000031c0 <LBB50_6>:
    1592:	65 01 07 00 09 00 00 00	if r1 s> 0x9 goto +0x7 <LBB50_8>
    1593:	07 03 00 00 ff ff ff ff	r3 += -0x1
    1594:	bf a4 00 00 00 00 00 00	r4 = r10
    1595:	07 04 00 00 d9 ff ff ff	r4 += -0x27
    1596:	0f 34 00 00 00 00 00 00	r4 += r3
    1597:	07 01 00 00 30 00 00 00	r1 += 0x30
    1598:	73 14 00 00 00 00 00 00	*(u8 *)(r4 + 0x0) = r1
    1599:	05 00 0a 00 00 00 00 00	goto +0xa <LBB50_9>

0000000000003200 <LBB50_8>:
    1600:	67 01 00 00 01 00 00 00	r1 <<= 0x1
    1601:	18 04 00 00 ec 9d 00 00 00 00 00 00 00 00 00 00	r4 = 0x9dec ll
    1603:	0f 14 00 00 00 00 00 00	r4 += r1
    1604:	07 03 00 00 fe ff ff ff	r3 += -0x2
    1605:	bf a1 00 00 00 00 00 00	r1 = r10
    1606:	07 01 00 00 d9 ff ff ff	r1 += -0x27
    1607:	0f 31 00 00 00 00 00 00	r1 += r3
    1608:	69 44 00 00 00 00 00 00	r4 = *(u16 *)(r4 + 0x0)
    1609:	6b 41 00 00 00 00 00 00	*(u16 *)(r1 + 0x0) = r4

0000000000003250 <LBB50_9>:
    1610:	bf a1 00 00 00 00 00 00	r1 = r10
    1611:	07 01 00 00 d9 ff ff ff	r1 += -0x27
    1612:	0f 31 00 00 00 00 00 00	r1 += r3
    1613:	7b 1a 00 f0 00 00 00 00	*(u64 *)(r10 - 0x1000) = r1
    1614:	b7 01 00 00 27 00 00 00	r1 = 0x27
    1615:	1f 31 00 00 00 00 00 00	r1 -= r3
    1616:	7b 1a 08 f0 00 00 00 00	*(u64 *)(r10 - 0xff8) = r1
    1617:	bf a5 00 00 00 00 00 00	r5 = r10
    1618:	bf 21 00 00 00 00 00 00	r1 = r2
    1619:	b7 02 00 00 01 00 00 00	r2 = 0x1
    1620:	18 03 00 00 b4 9e 00 00 00 00 00 00 00 00 00 00	r3 = 0x9eb4 ll
    1622:	b7 04 00 00 00 00 00 00	r4 = 0x0
    1623:	85 10 00 00 11 05 00 00	call 0x511
    1624:	95 00 00 00 00 00 00 00	exit

00000000000032c8 <core::fmt::num::imp::_$LT$impl$u20$core..fmt..Display$u20$for$u20$usize$GT$::fmt::h354c04ef2003efff>:
    1625:	b7 03 00 00 27 00 00 00	r3 = 0x27
    1626:	79 11 00 00 00 00 00 00	r1 = *(u64 *)(r1 + 0x0)
    1627:	b7 04 00 00 10 27 00 00	r4 = 0x2710
    1628:	2d 14 20 00 00 00 00 00	if r4 > r1 goto +0x20 <LBB52_4>
    1629:	b7 03 00 00 00 00 00 00	r3 = 0x0

00000000000032f0 <LBB52_2>:
    1630:	bf 14 00 00 00 00 00 00	r4 = r1
    1631:	37 01 00 00 10 27 00 00	r1 /= 0x2710
    1632:	bf 15 00 00 00 00 00 00	r5 = r1
    1633:	27 05 00 00 10 27 00 00	r5 *= 0x2710
    1634:	bf 40 00 00 00 00 00 00	r0 = r4
    1635:	1f 50 00 00 00 00 00 00	r0 -= r5
    1636:	bf 05 00 00 00 00 00 00	r5 = r0
    1637:	57 05 00 00 ff ff 00 00	r5 &= 0xffff
    1638:	37 05 00 00 64 00 00 00	r5 /= 0x64
    1639:	bf 56 00 00 00 00 00 00	r6 = r5
    1640:	27 06 00 00 64 00 00 00	r6 *= 0x64
    1641:	1f 60 00 00 00 00 00 00	r0 -= r6
    1642:	bf a6 00 00 00 00 00 00	r6 = r10
    1643:	07 06 00 00 d9 ff ff ff	r6 += -0x27
    1644:	0f 36 00 00 00 00 00 00	r6 += r3
    1645:	67 05 00 00 01 00 00 00	r5 <<= 0x1
    1646:	18 07 00 00 ec 9d 00 00 00 00 00 00 00 00 00 00	r7 = 0x9dec ll
    1648:	0f 57 00 00 00 00 00 00	r7 += r5
    1649:	69 75 00 00 00 00 00 00	r5 = *(u16 *)(r7 + 0x0)
    1650:	6b 56 23 00 00 00 00 00	*(u16 *)(r6 + 0x23) = r5
    1651:	57 00 00 00 ff ff 00 00	r0 &= 0xffff
    1652:	67 00 00 00 01 00 00 00	r0 <<= 0x1
    1653:	18 05 00 00 ec 9d 00 00 00 00 00 00 00 00 00 00	r5 = 0x9dec ll
    1655:	0f 05 00 00 00 00 00 00	r5 += r0
    1656:	69 55 00 00 00 00 00 00	r5 = *(u16 *)(r5 + 0x0)
    1657:	6b 56 25 00 00 00 00 00	*(u16 *)(r6 + 0x25) = r5
    1658:	07 03 00 00 fc ff ff ff	r3 += -0x4
    1659:	25 04 e2 ff ff e0 f5 05	if r4 > 0x5f5e0ff goto -0x1e <LBB52_2>
    1660:	07 03 00 00 27 00 00 00	r3 += 0x27

00000000000033e8 <LBB52_4>:
    1661:	65 01 01 00 63 00 00 00	if r1 s> 0x63 goto +0x1 <LBB52_5>
    1662:	05 00 12 00 00 00 00 00	goto +0x12 <LBB52_6>

00000000000033f8 <LBB52_5>:
    1663:	bf 14 00 00 00 00 00 00	r4 = r1
    1664:	57 04 00 00 ff ff 00 00	r4 &= 0xffff
    1665:	37 04 00 00 64 00 00 00	r4 /= 0x64
    1666:	bf 45 00 00 00 00 00 00	r5 = r4
    1667:	27 05 00 00 64 00 00 00	r5 *= 0x64
    1668:	1f 51 00 00 00 00 00 00	r1 -= r5
    1669:	57 01 00 00 ff ff 00 00	r1 &= 0xffff
    1670:	67 01 00 00 01 00 00 00	r1 <<= 0x1
    1671:	18 05 00 00 ec 9d 00 00 00 00 00 00 00 00 00 00	r5 = 0x9dec ll
    1673:	0f 15 00 00 00 00 00 00	r5 += r1
    1674:	07 03 00 00 fe ff ff ff	r3 += -0x2
    1675:	bf a1 00 00 00 00 00 00	r1 = r10
    1676:	07 01 00 00 d9 ff ff ff	r1 += -0x27
    1677:	0f 31 00 00 00 00 00 00	r1 += r3
    1678:	69 55 00 00 00 00 00 00	r5 = *(u16 *)(r5 + 0x0)
    1679:	6b 51 00 00 00 00 00 00	*(u16 *)(r1 + 0x0) = r5
    1680:	bf 41 00 00 00 00 00 00	r1 = r4

0000000000003488 <LBB52_6>:
    1681:	65 01 07 00 09 00 00 00	if r1 s> 0x9 goto +0x7 <LBB52_8>
    1682:	07 03 00 00 ff ff ff ff	r3 += -0x1
    1683:	bf a4 00 00 00 00 00 00	r4 = r10
    1684:	07 04 00 00 d9 ff ff ff	r4 += -0x27
    1685:	0f 34 00 00 00 00 00 00	r4 += r3
    1686:	07 01 00 00 30 00 00 00	r1 += 0x30
    1687:	73 14 00 00 00 00 00 00	*(u8 *)(r4 + 0x0) = r1
    1688:	05 00 0a 00 00 00 00 00	goto +0xa <LBB52_9>

00000000000034c8 <LBB52_8>:
    1689:	67 01 00 00 01 00 00 00	r1 <<= 0x1
    1690:	18 04 00 00 ec 9d 00 00 00 00 00 00 00 00 00 00	r4 = 0x9dec ll
    1692:	0f 14 00 00 00 00 00 00	r4 += r1
    1693:	07 03 00 00 fe ff ff ff	r3 += -0x2
    1694:	bf a1 00 00 00 00 00 00	r1 = r10
    1695:	07 01 00 00 d9 ff ff ff	r1 += -0x27
    1696:	0f 31 00 00 00 00 00 00	r1 += r3
    1697:	69 44 00 00 00 00 00 00	r4 = *(u16 *)(r4 + 0x0)
    1698:	6b 41 00 00 00 00 00 00	*(u16 *)(r1 + 0x0) = r4

0000000000003518 <LBB52_9>:
    1699:	bf a1 00 00 00 00 00 00	r1 = r10
    1700:	07 01 00 00 d9 ff ff ff	r1 += -0x27
    1701:	0f 31 00 00 00 00 00 00	r1 += r3
    1702:	7b 1a 00 f0 00 00 00 00	*(u64 *)(r10 - 0x1000) = r1
    1703:	b7 01 00 00 27 00 00 00	r1 = 0x27
    1704:	1f 31 00 00 00 00 00 00	r1 -= r3
    1705:	7b 1a 08 f0 00 00 00 00	*(u64 *)(r10 - 0xff8) = r1
    1706:	bf a5 00 00 00 00 00 00	r5 = r10
    1707:	bf 21 00 00 00 00 00 00	r1 = r2
    1708:	b7 02 00 00 01 00 00 00	r2 = 0x1
    1709:	18 03 00 00 b4 9e 00 00 00 00 00 00 00 00 00 00	r3 = 0x9eb4 ll
    1711:	b7 04 00 00 00 00 00 00	r4 = 0x0
    1712:	85 10 00 00 b8 04 00 00	call 0x4b8
    1713:	95 00 00 00 00 00 00 00	exit

0000000000003590 <_$LT$T$u20$as$u20$core..any..Any$GT$::type_id::h604ad2ccbcb824bd>:
    1714:	18 00 00 00 5d d5 37 a3 00 00 00 00 36 65 8c 18	r0 = 0x188c6536a337d55d ll
    1716:	95 00 00 00 00 00 00 00	exit

00000000000035a8 <_$LT$core..panic..PanicInfo$u20$as$u20$core..fmt..Display$GT$::fmt::h99869dd3a0f6e480>:
    1717:	bf 26 00 00 00 00 00 00	r6 = r2
    1718:	bf 17 00 00 00 00 00 00	r7 = r1
    1719:	79 61 20 00 00 00 00 00	r1 = *(u64 *)(r6 + 0x20)
    1720:	79 62 28 00 00 00 00 00	r2 = *(u64 *)(r6 + 0x28)
    1721:	79 24 18 00 00 00 00 00	r4 = *(u64 *)(r2 + 0x18)
    1722:	18 02 00 00 b4 9e 00 00 00 00 00 00 00 00 00 00	r2 = 0x9eb4 ll
    1724:	b7 03 00 00 0c 00 00 00	r3 = 0xc
    1725:	8d 00 00 00 04 00 00 00	callx r4
    1726:	b7 08 00 00 01 00 00 00	r8 = 0x1
    1727:	55 00 5f 00 00 00 00 00	if r0 != 0x0 goto +0x5f <LBB14_6>
    1728:	79 71 10 00 00 00 00 00	r1 = *(u64 *)(r7 + 0x10)
    1729:	55 01 43 00 00 00 00 00	if r1 != 0x0 goto +0x43 <LBB14_3>
    1730:	79 78 00 00 00 00 00 00	r8 = *(u64 *)(r7 + 0x0)
    1731:	79 71 08 00 00 00 00 00	r1 = *(u64 *)(r7 + 0x8)
    1732:	79 12 18 00 00 00 00 00	r2 = *(u64 *)(r1 + 0x18)
    1733:	bf 81 00 00 00 00 00 00	r1 = r8
    1734:	8d 00 00 00 02 00 00 00	callx r2
    1735:	18 01 00 00 f4 bc c7 ec 00 00 00 00 1e a9 f2 7e	r1 = 0x7ef2a91eecc7bcf4 ll
    1737:	1d 10 01 00 00 00 00 00	if r0 == r1 goto +0x1 <LBB14_4>
    1738:	05 00 19 00 00 00 00 00	goto +0x19 <LBB14_5>

0000000000003658 <LBB14_4>:
    1739:	7b 8a 98 ff 00 00 00 00	*(u64 *)(r10 - 0x68) = r8
    1740:	18 01 00 00 48 73 00 00 00 00 00 00 00 00 00 00	r1 = 0x7348 ll
    1742:	7b 1a a8 ff 00 00 00 00	*(u64 *)(r10 - 0x58) = r1
    1743:	bf a1 00 00 00 00 00 00	r1 = r10
    1744:	07 01 00 00 98 ff ff ff	r1 += -0x68
    1745:	7b 1a a0 ff 00 00 00 00	*(u64 *)(r10 - 0x60) = r1
    1746:	79 62 28 00 00 00 00 00	r2 = *(u64 *)(r6 + 0x28)
    1747:	79 61 20 00 00 00 00 00	r1 = *(u64 *)(r6 + 0x20)
    1748:	bf a3 00 00 00 00 00 00	r3 = r10
    1749:	07 03 00 00 a0 ff ff ff	r3 += -0x60
    1750:	7b 3a f0 ff 00 00 00 00	*(u64 *)(r10 - 0x10) = r3
    1751:	b7 03 00 00 00 00 00 00	r3 = 0x0
    1752:	7b 3a e0 ff 00 00 00 00	*(u64 *)(r10 - 0x20) = r3
    1753:	b7 03 00 00 02 00 00 00	r3 = 0x2
    1754:	7b 3a d8 ff 00 00 00 00	*(u64 *)(r10 - 0x28) = r3
    1755:	18 03 00 00 00 ab 00 00 00 00 00 00 00 00 00 00	r3 = 0xab00 ll
    1757:	7b 3a d0 ff 00 00 00 00	*(u64 *)(r10 - 0x30) = r3
    1758:	b7 08 00 00 01 00 00 00	r8 = 0x1
    1759:	7b 8a f8 ff 00 00 00 00	*(u64 *)(r10 - 0x8) = r8
    1760:	bf a3 00 00 00 00 00 00	r3 = r10
    1761:	07 03 00 00 d0 ff ff ff	r3 += -0x30
    1762:	85 10 00 00 e1 03 00 00	call 0x3e1
    1763:	55 00 3b 00 00 00 00 00	if r0 != 0x0 goto +0x3b <LBB14_6>

0000000000003720 <LBB14_5>:
    1764:	79 71 18 00 00 00 00 00	r1 = *(u64 *)(r7 + 0x18)
    1765:	bf 12 00 00 00 00 00 00	r2 = r1
    1766:	07 02 00 00 14 00 00 00	r2 += 0x14
    1767:	7b 2a c0 ff 00 00 00 00	*(u64 *)(r10 - 0x40) = r2
    1768:	18 02 00 00 00 30 00 00 00 00 00 00 00 00 00 00	r2 = 0x3000 ll
    1770:	7b 2a c8 ff 00 00 00 00	*(u64 *)(r10 - 0x38) = r2
    1771:	7b 2a b8 ff 00 00 00 00	*(u64 *)(r10 - 0x48) = r2
    1772:	bf 12 00 00 00 00 00 00	r2 = r1
    1773:	07 02 00 00 10 00 00 00	r2 += 0x10
    1774:	7b 2a b0 ff 00 00 00 00	*(u64 *)(r10 - 0x50) = r2
    1775:	18 02 00 00 80 73 00 00 00 00 00 00 00 00 00 00	r2 = 0x7380 ll
    1777:	7b 2a a8 ff 00 00 00 00	*(u64 *)(r10 - 0x58) = r2
    1778:	7b 1a a0 ff 00 00 00 00	*(u64 *)(r10 - 0x60) = r1
    1779:	79 62 28 00 00 00 00 00	r2 = *(u64 *)(r6 + 0x28)
    1780:	79 61 20 00 00 00 00 00	r1 = *(u64 *)(r6 + 0x20)
    1781:	bf a3 00 00 00 00 00 00	r3 = r10
    1782:	07 03 00 00 a0 ff ff ff	r3 += -0x60
    1783:	7b 3a f0 ff 00 00 00 00	*(u64 *)(r10 - 0x10) = r3
    1784:	b7 03 00 00 00 00 00 00	r3 = 0x0
    1785:	7b 3a e0 ff 00 00 00 00	*(u64 *)(r10 - 0x20) = r3
    1786:	b7 03 00 00 03 00 00 00	r3 = 0x3
    1787:	7b 3a f8 ff 00 00 00 00	*(u64 *)(r10 - 0x8) = r3
    1788:	7b 3a d8 ff 00 00 00 00	*(u64 *)(r10 - 0x28) = r3
    1789:	18 03 00 00 20 ab 00 00 00 00 00 00 00 00 00 00	r3 = 0xab20 ll
    1791:	7b 3a d0 ff 00 00 00 00	*(u64 *)(r10 - 0x30) = r3
    1792:	bf a3 00 00 00 00 00 00	r3 = r10
    1793:	07 03 00 00 d0 ff ff ff	r3 += -0x30
    1794:	85 10 00 00 c1 03 00 00	call 0x3c1
    1795:	bf 08 00 00 00 00 00 00	r8 = r0
    1796:	05 00 1a 00 00 00 00 00	goto +0x1a <LBB14_6>

0000000000003828 <LBB14_3>:
    1797:	7b 1a 98 ff 00 00 00 00	*(u64 *)(r10 - 0x68) = r1
    1798:	18 01 00 00 a0 72 00 00 00 00 00 00 00 00 00 00	r1 = 0x72a0 ll
    1800:	7b 1a a8 ff 00 00 00 00	*(u64 *)(r10 - 0x58) = r1
    1801:	bf a1 00 00 00 00 00 00	r1 = r10
    1802:	07 01 00 00 98 ff ff ff	r1 += -0x68
    1803:	7b 1a a0 ff 00 00 00 00	*(u64 *)(r10 - 0x60) = r1
    1804:	79 62 28 00 00 00 00 00	r2 = *(u64 *)(r6 + 0x28)
    1805:	79 61 20 00 00 00 00 00	r1 = *(u64 *)(r6 + 0x20)
    1806:	bf a3 00 00 00 00 00 00	r3 = r10
    1807:	07 03 00 00 a0 ff ff ff	r3 += -0x60
    1808:	7b 3a f0 ff 00 00 00 00	*(u64 *)(r10 - 0x10) = r3
    1809:	b7 03 00 00 00 00 00 00	r3 = 0x0
    1810:	7b 3a e0 ff 00 00 00 00	*(u64 *)(r10 - 0x20) = r3
    1811:	b7 03 00 00 02 00 00 00	r3 = 0x2
    1812:	7b 3a d8 ff 00 00 00 00	*(u64 *)(r10 - 0x28) = r3
    1813:	18 03 00 00 00 ab 00 00 00 00 00 00 00 00 00 00	r3 = 0xab00 ll
    1815:	7b 3a d0 ff 00 00 00 00	*(u64 *)(r10 - 0x30) = r3
    1816:	b7 08 00 00 01 00 00 00	r8 = 0x1
    1817:	7b 8a f8 ff 00 00 00 00	*(u64 *)(r10 - 0x8) = r8
    1818:	bf a3 00 00 00 00 00 00	r3 = r10
    1819:	07 03 00 00 d0 ff ff ff	r3 += -0x30
    1820:	85 10 00 00 a7 03 00 00	call 0x3a7
    1821:	55 00 01 00 00 00 00 00	if r0 != 0x0 goto +0x1 <LBB14_6>
    1822:	05 00 c5 ff 00 00 00 00	goto -0x3b <LBB14_5>

00000000000038f8 <LBB14_6>:
    1823:	bf 80 00 00 00 00 00 00	r0 = r8
    1824:	95 00 00 00 00 00 00 00	exit

0000000000003908 <core::ptr::drop_in_place$LT$$RF$core..option..Option$LT$core..option..IntoIter$LT$core..char..EscapeDebug$GT$$GT$$GT$::h83be95e6eb725e8f>:
    1825:	95 00 00 00 00 00 00 00	exit

0000000000003910 <_$LT$core..ops..range..Range$LT$Idx$GT$$u20$as$u20$core..fmt..Debug$GT$::fmt::hcd7272c7444c0052>:
    1826:	bf 26 00 00 00 00 00 00	r6 = r2
    1827:	bf 17 00 00 00 00 00 00	r7 = r1
    1828:	61 61 30 00 00 00 00 00	r1 = *(u32 *)(r6 + 0x30)
    1829:	bf 12 00 00 00 00 00 00	r2 = r1
    1830:	57 02 00 00 10 00 00 00	r2 &= 0x10
    1831:	15 02 04 00 00 00 00 00	if r2 == 0x0 goto +0x4 <LBB2_8>
    1832:	b7 02 00 00 00 00 00 00	r2 = 0x0
    1833:	79 71 00 00 00 00 00 00	r1 = *(u64 *)(r7 + 0x0)
    1834:	b7 03 00 00 0a 00 00 00	r3 = 0xa
    1835:	05 00 de 00 00 00 00 00	goto +0xde <LBB2_2>

0000000000003960 <LBB2_8>:
    1836:	57 01 00 00 20 00 00 00	r1 &= 0x20
    1837:	15 01 18 00 00 00 00 00	if r1 == 0x0 goto +0x18 <LBB2_16>
    1838:	b7 02 00 00 00 00 00 00	r2 = 0x0
    1839:	79 71 00 00 00 00 00 00	r1 = *(u64 *)(r7 + 0x0)
    1840:	b7 03 00 00 0a 00 00 00	r3 = 0xa
    1841:	05 00 0c 00 00 00 00 00	goto +0xc <LBB2_10>

0000000000003990 <LBB2_12>:
    1842:	bf a5 00 00 00 00 00 00	r5 = r10
    1843:	07 05 00 00 80 ff ff ff	r5 += -0x80
    1844:	0f 25 00 00 00 00 00 00	r5 += r2
    1845:	73 45 7f 00 00 00 00 00	*(u8 *)(r5 + 0x7f) = r4
    1846:	07 02 00 00 ff ff ff ff	r2 += -0x1
    1847:	77 01 00 00 04 00 00 00	r1 >>= 0x4
    1848:	55 01 05 00 00 00 00 00	if r1 != 0x0 goto +0x5 <LBB2_10>
    1849:	bf 21 00 00 00 00 00 00	r1 = r2
    1850:	07 01 00 00 80 00 00 00	r1 += 0x80
    1851:	b7 03 00 00 81 00 00 00	r3 = 0x81
    1852:	2d 13 49 00 00 00 00 00	if r3 > r1 goto +0x49 <LBB2_15>
    1853:	05 00 c7 00 00 00 00 00	goto +0xc7 <LBB2_6>

00000000000039f0 <LBB2_10>:
    1854:	bf 15 00 00 00 00 00 00	r5 = r1
    1855:	57 05 00 00 0f 00 00 00	r5 &= 0xf
    1856:	bf 54 00 00 00 00 00 00	r4 = r5
    1857:	47 04 00 00 30 00 00 00	r4 |= 0x30
    1858:	2d 53 ef ff 00 00 00 00	if r3 > r5 goto -0x11 <LBB2_12>
    1859:	07 05 00 00 37 00 00 00	r5 += 0x37
    1860:	bf 54 00 00 00 00 00 00	r4 = r5
    1861:	05 00 ec ff 00 00 00 00	goto -0x14 <LBB2_12>

0000000000003a30 <LBB2_16>:
    1862:	b7 01 00 00 27 00 00 00	r1 = 0x27
    1863:	79 72 00 00 00 00 00 00	r2 = *(u64 *)(r7 + 0x0)
    1864:	b7 03 00 00 10 27 00 00	r3 = 0x2710
    1865:	2d 23 20 00 00 00 00 00	if r3 > r2 goto +0x20 <LBB2_20>
    1866:	b7 01 00 00 00 00 00 00	r1 = 0x0

0000000000003a58 <LBB2_18>:
    1867:	bf 23 00 00 00 00 00 00	r3 = r2
    1868:	37 02 00 00 10 27 00 00	r2 /= 0x2710
    1869:	bf 24 00 00 00 00 00 00	r4 = r2
    1870:	27 04 00 00 10 27 00 00	r4 *= 0x2710
    1871:	bf 35 00 00 00 00 00 00	r5 = r3
    1872:	1f 45 00 00 00 00 00 00	r5 -= r4
    1873:	bf 54 00 00 00 00 00 00	r4 = r5
    1874:	57 04 00 00 ff ff 00 00	r4 &= 0xffff
    1875:	37 04 00 00 64 00 00 00	r4 /= 0x64
    1876:	bf 40 00 00 00 00 00 00	r0 = r4
    1877:	27 00 00 00 64 00 00 00	r0 *= 0x64
    1878:	1f 05 00 00 00 00 00 00	r5 -= r0
    1879:	bf a0 00 00 00 00 00 00	r0 = r10
    1880:	07 00 00 00 80 ff ff ff	r0 += -0x80
    1881:	0f 10 00 00 00 00 00 00	r0 += r1
    1882:	67 04 00 00 01 00 00 00	r4 <<= 0x1
    1883:	18 08 00 00 ec 9d 00 00 00 00 00 00 00 00 00 00	r8 = 0x9dec ll
    1885:	0f 48 00 00 00 00 00 00	r8 += r4
    1886:	69 84 00 00 00 00 00 00	r4 = *(u16 *)(r8 + 0x0)
    1887:	6b 40 23 00 00 00 00 00	*(u16 *)(r0 + 0x23) = r4
    1888:	57 05 00 00 ff ff 00 00	r5 &= 0xffff
    1889:	67 05 00 00 01 00 00 00	r5 <<= 0x1
    1890:	18 04 00 00 ec 9d 00 00 00 00 00 00 00 00 00 00	r4 = 0x9dec ll
    1892:	0f 54 00 00 00 00 00 00	r4 += r5
    1893:	69 44 00 00 00 00 00 00	r4 = *(u16 *)(r4 + 0x0)
    1894:	6b 40 25 00 00 00 00 00	*(u16 *)(r0 + 0x25) = r4
    1895:	07 01 00 00 fc ff ff ff	r1 += -0x4
    1896:	25 03 e2 ff ff e0 f5 05	if r3 > 0x5f5e0ff goto -0x1e <LBB2_18>
    1897:	07 01 00 00 27 00 00 00	r1 += 0x27

0000000000003b50 <LBB2_20>:
    1898:	65 02 01 00 63 00 00 00	if r2 s> 0x63 goto +0x1 <LBB2_21>
    1899:	05 00 12 00 00 00 00 00	goto +0x12 <LBB2_22>

0000000000003b60 <LBB2_21>:
    1900:	bf 23 00 00 00 00 00 00	r3 = r2
    1901:	57 03 00 00 ff ff 00 00	r3 &= 0xffff
    1902:	37 03 00 00 64 00 00 00	r3 /= 0x64
    1903:	bf 34 00 00 00 00 00 00	r4 = r3
    1904:	27 04 00 00 64 00 00 00	r4 *= 0x64
    1905:	1f 42 00 00 00 00 00 00	r2 -= r4
    1906:	57 02 00 00 ff ff 00 00	r2 &= 0xffff
    1907:	67 02 00 00 01 00 00 00	r2 <<= 0x1
    1908:	18 04 00 00 ec 9d 00 00 00 00 00 00 00 00 00 00	r4 = 0x9dec ll
    1910:	0f 24 00 00 00 00 00 00	r4 += r2
    1911:	07 01 00 00 fe ff ff ff	r1 += -0x2
    1912:	bf a2 00 00 00 00 00 00	r2 = r10
    1913:	07 02 00 00 80 ff ff ff	r2 += -0x80
    1914:	0f 12 00 00 00 00 00 00	r2 += r1
    1915:	69 44 00 00 00 00 00 00	r4 = *(u16 *)(r4 + 0x0)
    1916:	6b 42 00 00 00 00 00 00	*(u16 *)(r2 + 0x0) = r4
    1917:	bf 32 00 00 00 00 00 00	r2 = r3

0000000000003bf0 <LBB2_22>:
    1918:	65 02 19 00 09 00 00 00	if r2 s> 0x9 goto +0x19 <LBB2_24>
    1919:	07 01 00 00 ff ff ff ff	r1 += -0x1
    1920:	bf a3 00 00 00 00 00 00	r3 = r10
    1921:	07 03 00 00 80 ff ff ff	r3 += -0x80
    1922:	0f 13 00 00 00 00 00 00	r3 += r1
    1923:	07 02 00 00 30 00 00 00	r2 += 0x30
    1924:	73 23 00 00 00 00 00 00	*(u8 *)(r3 + 0x0) = r2
    1925:	05 00 1c 00 00 00 00 00	goto +0x1c <LBB2_25>

0000000000003c30 <LBB2_15>:
    1926:	bf 21 00 00 00 00 00 00	r1 = r2
    1927:	87 01 00 00 00 00 00 00	r1 = -r1
    1928:	7b 1a 08 f0 00 00 00 00	*(u64 *)(r10 - 0xff8) = r1
    1929:	bf a1 00 00 00 00 00 00	r1 = r10
    1930:	07 01 00 00 80 ff ff ff	r1 += -0x80
    1931:	0f 21 00 00 00 00 00 00	r1 += r2
    1932:	07 01 00 00 80 00 00 00	r1 += 0x80
    1933:	7b 1a 00 f0 00 00 00 00	*(u64 *)(r10 - 0x1000) = r1
    1934:	bf a5 00 00 00 00 00 00	r5 = r10
    1935:	b7 08 00 00 01 00 00 00	r8 = 0x1
    1936:	bf 61 00 00 00 00 00 00	r1 = r6
    1937:	b7 02 00 00 01 00 00 00	r2 = 0x1
    1938:	18 03 00 00 ea 9d 00 00 00 00 00 00 00 00 00 00	r3 = 0x9dea ll
    1940:	b7 04 00 00 02 00 00 00	r4 = 0x2
    1941:	85 10 00 00 d3 03 00 00	call 0x3d3
    1942:	55 00 0c 01 00 00 00 00	if r0 != 0x0 goto +0x10c <LBB2_54>
    1943:	05 00 1a 00 00 00 00 00	goto +0x1a <LBB2_26>

0000000000003cc0 <LBB2_24>:
    1944:	67 02 00 00 01 00 00 00	r2 <<= 0x1
    1945:	18 03 00 00 ec 9d 00 00 00 00 00 00 00 00 00 00	r3 = 0x9dec ll
    1947:	0f 23 00 00 00 00 00 00	r3 += r2
    1948:	07 01 00 00 fe ff ff ff	r1 += -0x2
    1949:	bf a2 00 00 00 00 00 00	r2 = r10
    1950:	07 02 00 00 80 ff ff ff	r2 += -0x80
    1951:	0f 12 00 00 00 00 00 00	r2 += r1
    1952:	69 33 00 00 00 00 00 00	r3 = *(u16 *)(r3 + 0x0)
    1953:	6b 32 00 00 00 00 00 00	*(u16 *)(r2 + 0x0) = r3

0000000000003d10 <LBB2_25>:
    1954:	bf a2 00 00 00 00 00 00	r2 = r10
    1955:	07 02 00 00 80 ff ff ff	r2 += -0x80
    1956:	0f 12 00 00 00 00 00 00	r2 += r1
    1957:	7b 2a 00 f0 00 00 00 00	*(u64 *)(r10 - 0x1000) = r2
    1958:	b7 02 00 00 27 00 00 00	r2 = 0x27
    1959:	1f 12 00 00 00 00 00 00	r2 -= r1
    1960:	7b 2a 08 f0 00 00 00 00	*(u64 *)(r10 - 0xff8) = r2
    1961:	bf a5 00 00 00 00 00 00	r5 = r10
    1962:	b7 08 00 00 01 00 00 00	r8 = 0x1
    1963:	bf 61 00 00 00 00 00 00	r1 = r6
    1964:	b7 02 00 00 01 00 00 00	r2 = 0x1
    1965:	18 03 00 00 b4 9e 00 00 00 00 00 00 00 00 00 00	r3 = 0x9eb4 ll
    1967:	b7 04 00 00 00 00 00 00	r4 = 0x0
    1968:	85 10 00 00 b8 03 00 00	call 0x3b8
    1969:	55 00 f1 00 00 00 00 00	if r0 != 0x0 goto +0xf1 <LBB2_54>

0000000000003d90 <LBB2_26>:
    1970:	79 62 28 00 00 00 00 00	r2 = *(u64 *)(r6 + 0x28)
    1971:	79 61 20 00 00 00 00 00	r1 = *(u64 *)(r6 + 0x20)
    1972:	18 03 00 00 c8 9e 00 00 00 00 00 00 00 00 00 00	r3 = 0x9ec8 ll
    1974:	7b 3a a0 ff 00 00 00 00	*(u64 *)(r10 - 0x60) = r3
    1975:	b7 03 00 00 00 00 00 00	r3 = 0x0
    1976:	7b 3a a8 ff 00 00 00 00	*(u64 *)(r10 - 0x58) = r3
    1977:	7b 3a 90 ff 00 00 00 00	*(u64 *)(r10 - 0x70) = r3
    1978:	18 03 00 00 50 ab 00 00 00 00 00 00 00 00 00 00	r3 = 0xab50 ll
    1980:	7b 3a 80 ff 00 00 00 00	*(u64 *)(r10 - 0x80) = r3
    1981:	b7 03 00 00 01 00 00 00	r3 = 0x1
    1982:	7b 3a 88 ff 00 00 00 00	*(u64 *)(r10 - 0x78) = r3
    1983:	bf a3 00 00 00 00 00 00	r3 = r10
    1984:	07 03 00 00 80 ff ff ff	r3 += -0x80
    1985:	85 10 00 00 02 03 00 00	call 0x302
    1986:	b7 08 00 00 01 00 00 00	r8 = 0x1
    1987:	55 00 df 00 00 00 00 00	if r0 != 0x0 goto +0xdf <LBB2_54>
    1988:	61 61 30 00 00 00 00 00	r1 = *(u32 *)(r6 + 0x30)
    1989:	bf 12 00 00 00 00 00 00	r2 = r1
    1990:	57 02 00 00 10 00 00 00	r2 &= 0x10
    1991:	15 02 18 00 00 00 00 00	if r2 == 0x0 goto +0x18 <LBB2_35>
    1992:	b7 02 00 00 00 00 00 00	r2 = 0x0
    1993:	79 71 08 00 00 00 00 00	r1 = *(u64 *)(r7 + 0x8)
    1994:	b7 03 00 00 0a 00 00 00	r3 = 0xa
    1995:	05 00 0c 00 00 00 00 00	goto +0xc <LBB2_29>

0000000000003e60 <LBB2_31>:
    1996:	bf a5 00 00 00 00 00 00	r5 = r10
    1997:	07 05 00 00 80 ff ff ff	r5 += -0x80
    1998:	0f 25 00 00 00 00 00 00	r5 += r2
    1999:	73 45 7f 00 00 00 00 00	*(u8 *)(r5 + 0x7f) = r4
    2000:	07 02 00 00 ff ff ff ff	r2 += -0x1
    2001:	77 01 00 00 04 00 00 00	r1 >>= 0x4
    2002:	55 01 05 00 00 00 00 00	if r1 != 0x0 goto +0x5 <LBB2_29>
    2003:	bf 21 00 00 00 00 00 00	r1 = r2
    2004:	07 01 00 00 80 00 00 00	r1 += 0x80
    2005:	b7 03 00 00 81 00 00 00	r3 = 0x81
    2006:	2d 13 4d 00 00 00 00 00	if r3 > r1 goto +0x4d <LBB2_34>
    2007:	05 00 2d 00 00 00 00 00	goto +0x2d <LBB2_6>

0000000000003ec0 <LBB2_29>:
    2008:	bf 15 00 00 00 00 00 00	r5 = r1
    2009:	57 05 00 00 0f 00 00 00	r5 &= 0xf
    2010:	bf 54 00 00 00 00 00 00	r4 = r5
    2011:	47 04 00 00 30 00 00 00	r4 |= 0x30
    2012:	2d 53 ef ff 00 00 00 00	if r3 > r5 goto -0x11 <LBB2_31>
    2013:	07 05 00 00 57 00 00 00	r5 += 0x57
    2014:	bf 54 00 00 00 00 00 00	r4 = r5
    2015:	05 00 ec ff 00 00 00 00	goto -0x14 <LBB2_31>

0000000000003f00 <LBB2_35>:
    2016:	57 01 00 00 20 00 00 00	r1 &= 0x20
    2017:	15 01 54 00 00 00 00 00	if r1 == 0x0 goto +0x54 <LBB2_43>
    2018:	b7 02 00 00 00 00 00 00	r2 = 0x0
    2019:	79 71 08 00 00 00 00 00	r1 = *(u64 *)(r7 + 0x8)
    2020:	b7 03 00 00 0a 00 00 00	r3 = 0xa
    2021:	05 00 0c 00 00 00 00 00	goto +0xc <LBB2_37>

0000000000003f30 <LBB2_39>:
    2022:	bf a5 00 00 00 00 00 00	r5 = r10
    2023:	07 05 00 00 80 ff ff ff	r5 += -0x80
    2024:	0f 25 00 00 00 00 00 00	r5 += r2
    2025:	73 45 7f 00 00 00 00 00	*(u8 *)(r5 + 0x7f) = r4
    2026:	07 02 00 00 ff ff ff ff	r2 += -0x1
    2027:	77 01 00 00 04 00 00 00	r1 >>= 0x4
    2028:	55 01 05 00 00 00 00 00	if r1 != 0x0 goto +0x5 <LBB2_37>
    2029:	bf 21 00 00 00 00 00 00	r1 = r2
    2030:	07 01 00 00 80 00 00 00	r1 += 0x80
    2031:	b7 03 00 00 81 00 00 00	r3 = 0x81
    2032:	2d 13 85 00 00 00 00 00	if r3 > r1 goto +0x85 <LBB2_42>
    2033:	05 00 13 00 00 00 00 00	goto +0x13 <LBB2_6>

0000000000003f90 <LBB2_37>:
    2034:	bf 15 00 00 00 00 00 00	r5 = r1
    2035:	57 05 00 00 0f 00 00 00	r5 &= 0xf
    2036:	bf 54 00 00 00 00 00 00	r4 = r5
    2037:	47 04 00 00 30 00 00 00	r4 |= 0x30
    2038:	2d 53 ef ff 00 00 00 00	if r3 > r5 goto -0x11 <LBB2_39>
    2039:	07 05 00 00 37 00 00 00	r5 += 0x37
    2040:	bf 54 00 00 00 00 00 00	r4 = r5
    2041:	05 00 ec ff 00 00 00 00	goto -0x14 <LBB2_39>

0000000000003fd0 <LBB2_4>:
    2042:	bf a5 00 00 00 00 00 00	r5 = r10
    2043:	07 05 00 00 80 ff ff ff	r5 += -0x80
    2044:	0f 25 00 00 00 00 00 00	r5 += r2
    2045:	73 45 7f 00 00 00 00 00	*(u8 *)(r5 + 0x7f) = r4
    2046:	07 02 00 00 ff ff ff ff	r2 += -0x1
    2047:	77 01 00 00 04 00 00 00	r1 >>= 0x4
    2048:	55 01 09 00 00 00 00 00	if r1 != 0x0 goto +0x9 <LBB2_2>
    2049:	bf 21 00 00 00 00 00 00	r1 = r2
    2050:	07 01 00 00 80 00 00 00	r1 += 0x80
    2051:	b7 03 00 00 81 00 00 00	r3 = 0x81
    2052:	2d 13 0d 00 00 00 00 00	if r3 > r1 goto +0xd <LBB2_7>

0000000000004028 <LBB2_6>:
    2053:	b7 02 00 00 80 00 00 00	r2 = 0x80
    2054:	18 03 00 00 e8 aa 00 00 00 00 00 00 00 00 00 00	r3 = 0xaae8 ll
    2056:	85 10 00 00 9c 08 00 00	call 0x89c
    2057:	85 10 00 00 ff ff ff ff	call -0x1

0000000000004050 <LBB2_2>:
    2058:	bf 15 00 00 00 00 00 00	r5 = r1
    2059:	57 05 00 00 0f 00 00 00	r5 &= 0xf
    2060:	bf 54 00 00 00 00 00 00	r4 = r5
    2061:	47 04 00 00 30 00 00 00	r4 |= 0x30
    2062:	2d 53 eb ff 00 00 00 00	if r3 > r5 goto -0x15 <LBB2_4>
    2063:	07 05 00 00 57 00 00 00	r5 += 0x57
    2064:	bf 54 00 00 00 00 00 00	r4 = r5
    2065:	05 00 e8 ff 00 00 00 00	goto -0x18 <LBB2_4>

0000000000004090 <LBB2_7>:
    2066:	bf 21 00 00 00 00 00 00	r1 = r2
    2067:	87 01 00 00 00 00 00 00	r1 = -r1
    2068:	7b 1a 08 f0 00 00 00 00	*(u64 *)(r10 - 0xff8) = r1
    2069:	bf a1 00 00 00 00 00 00	r1 = r10
    2070:	07 01 00 00 80 ff ff ff	r1 += -0x80
    2071:	0f 21 00 00 00 00 00 00	r1 += r2
    2072:	07 01 00 00 80 00 00 00	r1 += 0x80
    2073:	7b 1a 00 f0 00 00 00 00	*(u64 *)(r10 - 0x1000) = r1
    2074:	bf a5 00 00 00 00 00 00	r5 = r10
    2075:	b7 08 00 00 01 00 00 00	r8 = 0x1
    2076:	bf 61 00 00 00 00 00 00	r1 = r6
    2077:	b7 02 00 00 01 00 00 00	r2 = 0x1
    2078:	18 03 00 00 ea 9d 00 00 00 00 00 00 00 00 00 00	r3 = 0x9dea ll
    2080:	b7 04 00 00 02 00 00 00	r4 = 0x2
    2081:	85 10 00 00 47 03 00 00	call 0x347
    2082:	55 00 80 00 00 00 00 00	if r0 != 0x0 goto +0x80 <LBB2_54>
    2083:	05 00 8e ff 00 00 00 00	goto -0x72 <LBB2_26>

0000000000004120 <LBB2_34>:
    2084:	bf 21 00 00 00 00 00 00	r1 = r2
    2085:	87 01 00 00 00 00 00 00	r1 = -r1
    2086:	7b 1a 08 f0 00 00 00 00	*(u64 *)(r10 - 0xff8) = r1
    2087:	bf a1 00 00 00 00 00 00	r1 = r10
    2088:	07 01 00 00 80 ff ff ff	r1 += -0x80
    2089:	0f 21 00 00 00 00 00 00	r1 += r2
    2090:	07 01 00 00 80 00 00 00	r1 += 0x80
    2091:	7b 1a 00 f0 00 00 00 00	*(u64 *)(r10 - 0x1000) = r1
    2092:	bf a5 00 00 00 00 00 00	r5 = r10
    2093:	bf 61 00 00 00 00 00 00	r1 = r6
    2094:	b7 02 00 00 01 00 00 00	r2 = 0x1
    2095:	18 03 00 00 ea 9d 00 00 00 00 00 00 00 00 00 00	r3 = 0x9dea ll
    2097:	b7 04 00 00 02 00 00 00	r4 = 0x2
    2098:	85 10 00 00 36 03 00 00	call 0x336
    2099:	b7 08 00 00 00 00 00 00	r8 = 0x0
    2100:	55 00 6d 00 00 00 00 00	if r0 != 0x0 goto +0x6d <LBB2_53>
    2101:	05 00 6d 00 00 00 00 00	goto +0x6d <LBB2_54>

00000000000041b0 <LBB2_43>:
    2102:	b7 01 00 00 27 00 00 00	r1 = 0x27
    2103:	79 72 08 00 00 00 00 00	r2 = *(u64 *)(r7 + 0x8)
    2104:	b7 03 00 00 10 27 00 00	r3 = 0x2710
    2105:	2d 23 20 00 00 00 00 00	if r3 > r2 goto +0x20 <LBB2_47>
    2106:	b7 01 00 00 00 00 00 00	r1 = 0x0

00000000000041d8 <LBB2_45>:
    2107:	bf 23 00 00 00 00 00 00	r3 = r2
    2108:	37 02 00 00 10 27 00 00	r2 /= 0x2710
    2109:	bf 24 00 00 00 00 00 00	r4 = r2
    2110:	27 04 00 00 10 27 00 00	r4 *= 0x2710
    2111:	bf 35 00 00 00 00 00 00	r5 = r3
    2112:	1f 45 00 00 00 00 00 00	r5 -= r4
    2113:	bf 54 00 00 00 00 00 00	r4 = r5
    2114:	57 04 00 00 ff ff 00 00	r4 &= 0xffff
    2115:	37 04 00 00 64 00 00 00	r4 /= 0x64
    2116:	bf 40 00 00 00 00 00 00	r0 = r4
    2117:	27 00 00 00 64 00 00 00	r0 *= 0x64
    2118:	1f 05 00 00 00 00 00 00	r5 -= r0
    2119:	bf a0 00 00 00 00 00 00	r0 = r10
    2120:	07 00 00 00 80 ff ff ff	r0 += -0x80
    2121:	0f 10 00 00 00 00 00 00	r0 += r1
    2122:	67 04 00 00 01 00 00 00	r4 <<= 0x1
    2123:	18 07 00 00 ec 9d 00 00 00 00 00 00 00 00 00 00	r7 = 0x9dec ll
    2125:	0f 47 00 00 00 00 00 00	r7 += r4
    2126:	69 74 00 00 00 00 00 00	r4 = *(u16 *)(r7 + 0x0)
    2127:	6b 40 23 00 00 00 00 00	*(u16 *)(r0 + 0x23) = r4
    2128:	57 05 00 00 ff ff 00 00	r5 &= 0xffff
    2129:	67 05 00 00 01 00 00 00	r5 <<= 0x1
    2130:	18 04 00 00 ec 9d 00 00 00 00 00 00 00 00 00 00	r4 = 0x9dec ll
    2132:	0f 54 00 00 00 00 00 00	r4 += r5
    2133:	69 44 00 00 00 00 00 00	r4 = *(u16 *)(r4 + 0x0)
    2134:	6b 40 25 00 00 00 00 00	*(u16 *)(r0 + 0x25) = r4
    2135:	07 01 00 00 fc ff ff ff	r1 += -0x4
    2136:	25 03 e2 ff ff e0 f5 05	if r3 > 0x5f5e0ff goto -0x1e <LBB2_45>
    2137:	07 01 00 00 27 00 00 00	r1 += 0x27

00000000000042d0 <LBB2_47>:
    2138:	65 02 01 00 63 00 00 00	if r2 s> 0x63 goto +0x1 <LBB2_48>
    2139:	05 00 12 00 00 00 00 00	goto +0x12 <LBB2_49>

00000000000042e0 <LBB2_48>:
    2140:	bf 23 00 00 00 00 00 00	r3 = r2
    2141:	57 03 00 00 ff ff 00 00	r3 &= 0xffff
    2142:	37 03 00 00 64 00 00 00	r3 /= 0x64
    2143:	bf 34 00 00 00 00 00 00	r4 = r3
    2144:	27 04 00 00 64 00 00 00	r4 *= 0x64
    2145:	1f 42 00 00 00 00 00 00	r2 -= r4
    2146:	57 02 00 00 ff ff 00 00	r2 &= 0xffff
    2147:	67 02 00 00 01 00 00 00	r2 <<= 0x1
    2148:	18 04 00 00 ec 9d 00 00 00 00 00 00 00 00 00 00	r4 = 0x9dec ll
    2150:	0f 24 00 00 00 00 00 00	r4 += r2
    2151:	07 01 00 00 fe ff ff ff	r1 += -0x2
    2152:	bf a2 00 00 00 00 00 00	r2 = r10
    2153:	07 02 00 00 80 ff ff ff	r2 += -0x80
    2154:	0f 12 00 00 00 00 00 00	r2 += r1
    2155:	69 44 00 00 00 00 00 00	r4 = *(u16 *)(r4 + 0x0)
    2156:	6b 42 00 00 00 00 00 00	*(u16 *)(r2 + 0x0) = r4
    2157:	bf 32 00 00 00 00 00 00	r2 = r3

0000000000004370 <LBB2_49>:
    2158:	65 02 19 00 09 00 00 00	if r2 s> 0x9 goto +0x19 <LBB2_51>
    2159:	07 01 00 00 ff ff ff ff	r1 += -0x1
    2160:	bf a3 00 00 00 00 00 00	r3 = r10
    2161:	07 03 00 00 80 ff ff ff	r3 += -0x80
    2162:	0f 13 00 00 00 00 00 00	r3 += r1
    2163:	07 02 00 00 30 00 00 00	r2 += 0x30
    2164:	73 23 00 00 00 00 00 00	*(u8 *)(r3 + 0x0) = r2
    2165:	05 00 1c 00 00 00 00 00	goto +0x1c <LBB2_52>

00000000000043b0 <LBB2_42>:
    2166:	bf 21 00 00 00 00 00 00	r1 = r2
    2167:	87 01 00 00 00 00 00 00	r1 = -r1
    2168:	7b 1a 08 f0 00 00 00 00	*(u64 *)(r10 - 0xff8) = r1
    2169:	bf a1 00 00 00 00 00 00	r1 = r10
    2170:	07 01 00 00 80 ff ff ff	r1 += -0x80
    2171:	0f 21 00 00 00 00 00 00	r1 += r2
    2172:	07 01 00 00 80 00 00 00	r1 += 0x80
    2173:	7b 1a 00 f0 00 00 00 00	*(u64 *)(r10 - 0x1000) = r1
    2174:	bf a5 00 00 00 00 00 00	r5 = r10
    2175:	bf 61 00 00 00 00 00 00	r1 = r6
    2176:	b7 02 00 00 01 00 00 00	r2 = 0x1
    2177:	18 03 00 00 ea 9d 00 00 00 00 00 00 00 00 00 00	r3 = 0x9dea ll
    2179:	b7 04 00 00 02 00 00 00	r4 = 0x2
    2180:	85 10 00 00 e4 02 00 00	call 0x2e4
    2181:	b7 08 00 00 00 00 00 00	r8 = 0x0
    2182:	55 00 1b 00 00 00 00 00	if r0 != 0x0 goto +0x1b <LBB2_53>
    2183:	05 00 1b 00 00 00 00 00	goto +0x1b <LBB2_54>

0000000000004440 <LBB2_51>:
    2184:	67 02 00 00 01 00 00 00	r2 <<= 0x1
    2185:	18 03 00 00 ec 9d 00 00 00 00 00 00 00 00 00 00	r3 = 0x9dec ll
    2187:	0f 23 00 00 00 00 00 00	r3 += r2
    2188:	07 01 00 00 fe ff ff ff	r1 += -0x2
    2189:	bf a2 00 00 00 00 00 00	r2 = r10
    2190:	07 02 00 00 80 ff ff ff	r2 += -0x80
    2191:	0f 12 00 00 00 00 00 00	r2 += r1
    2192:	69 33 00 00 00 00 00 00	r3 = *(u16 *)(r3 + 0x0)
    2193:	6b 32 00 00 00 00 00 00	*(u16 *)(r2 + 0x0) = r3

0000000000004490 <LBB2_52>:
    2194:	bf a2 00 00 00 00 00 00	r2 = r10
    2195:	07 02 00 00 80 ff ff ff	r2 += -0x80
    2196:	0f 12 00 00 00 00 00 00	r2 += r1
    2197:	7b 2a 00 f0 00 00 00 00	*(u64 *)(r10 - 0x1000) = r2
    2198:	b7 02 00 00 27 00 00 00	r2 = 0x27
    2199:	1f 12 00 00 00 00 00 00	r2 -= r1
    2200:	7b 2a 08 f0 00 00 00 00	*(u64 *)(r10 - 0xff8) = r2
    2201:	bf a5 00 00 00 00 00 00	r5 = r10
    2202:	b7 08 00 00 00 00 00 00	r8 = 0x0
    2203:	bf 61 00 00 00 00 00 00	r1 = r6
    2204:	b7 02 00 00 01 00 00 00	r2 = 0x1
    2205:	18 03 00 00 b4 9e 00 00 00 00 00 00 00 00 00 00	r3 = 0x9eb4 ll
    2207:	b7 04 00 00 00 00 00 00	r4 = 0x0
    2208:	85 10 00 00 c8 02 00 00	call 0x2c8
    2209:	15 00 01 00 00 00 00 00	if r0 == 0x0 goto +0x1 <LBB2_54>

0000000000004510 <LBB2_53>:
    2210:	b7 08 00 00 01 00 00 00	r8 = 0x1

0000000000004518 <LBB2_54>:
    2211:	bf 80 00 00 00 00 00 00	r0 = r8
    2212:	95 00 00 00 00 00 00 00	exit

0000000000004528 <core::unicode::printable::check::h66583b59a1b5b0f0 (.llvm.16096329970512719339)>:
    2213:	bf 19 00 00 00 00 00 00	r9 = r1
    2214:	79 51 10 f0 00 00 00 00	r1 = *(u64 *)(r5 - 0xff0)
    2215:	7b 1a f0 ff 00 00 00 00	*(u64 *)(r10 - 0x10) = r1
    2216:	79 56 08 f0 00 00 00 00	r6 = *(u64 *)(r5 - 0xff8)
    2217:	15 03 33 00 00 00 00 00	if r3 == 0x0 goto +0x33 <LBB16_13>
    2218:	67 03 00 00 01 00 00 00	r3 <<= 0x1
    2219:	bf 21 00 00 00 00 00 00	r1 = r2
    2220:	0f 31 00 00 00 00 00 00	r1 += r3
    2221:	7b 1a f8 ff 00 00 00 00	*(u64 *)(r10 - 0x8) = r1
    2222:	79 58 00 f0 00 00 00 00	r8 = *(u64 *)(r5 - 0x1000)
    2223:	bf 93 00 00 00 00 00 00	r3 = r9
    2224:	57 03 00 00 00 ff 00 00	r3 &= 0xff00
    2225:	77 03 00 00 08 00 00 00	r3 >>= 0x8
    2226:	b7 00 00 00 00 00 00 00	r0 = 0x0
    2227:	7b 4a e0 ff 00 00 00 00	*(u64 *)(r10 - 0x20) = r4
    2228:	7b 8a e8 ff 00 00 00 00	*(u64 *)(r10 - 0x18) = r8
    2229:	05 00 04 00 00 00 00 00	goto +0x4 <LBB16_2>

00000000000045b0 <LBB16_7>:
    2230:	2d 31 26 00 00 00 00 00	if r1 > r3 goto +0x26 <LBB16_13>
    2231:	bf 50 00 00 00 00 00 00	r0 = r5
    2232:	79 a1 f8 ff 00 00 00 00	r1 = *(u64 *)(r10 - 0x8)
    2233:	1d 12 23 00 00 00 00 00	if r2 == r1 goto +0x23 <LBB16_13>

00000000000045d0 <LBB16_2>:
    2234:	71 27 01 00 00 00 00 00	r7 = *(u8 *)(r2 + 0x1)
    2235:	bf 05 00 00 00 00 00 00	r5 = r0
    2236:	0f 75 00 00 00 00 00 00	r5 += r7
    2237:	71 21 00 00 00 00 00 00	r1 = *(u8 *)(r2 + 0x0)
    2238:	07 02 00 00 02 00 00 00	r2 += 0x2
    2239:	5d 31 f6 ff 00 00 00 00	if r1 != r3 goto -0xa <LBB16_7>
    2240:	3d 05 06 00 00 00 00 00	if r5 >= r0 goto +0x6 <LBB16_5>
    2241:	bf 01 00 00 00 00 00 00	r1 = r0
    2242:	bf 52 00 00 00 00 00 00	r2 = r5
    2243:	18 03 00 00 60 ab 00 00 00 00 00 00 00 00 00 00	r3 = 0xab60 ll
    2245:	85 10 00 00 17 08 00 00	call 0x817
    2246:	85 10 00 00 ff ff ff ff	call -0x1

0000000000004638 <LBB16_5>:
    2247:	3d 58 06 00 00 00 00 00	if r8 >= r5 goto +0x6 <LBB16_9>
    2248:	bf 51 00 00 00 00 00 00	r1 = r5
    2249:	79 a2 e8 ff 00 00 00 00	r2 = *(u64 *)(r10 - 0x18)
    2250:	18 03 00 00 60 ab 00 00 00 00 00 00 00 00 00 00	r3 = 0xab60 ll
    2252:	85 10 00 00 f4 07 00 00	call 0x7f4
    2253:	85 10 00 00 ff ff ff ff	call -0x1

0000000000004670 <LBB16_9>:
    2254:	0f 04 00 00 00 00 00 00	r4 += r0

0000000000004678 <LBB16_10>:
    2255:	15 07 08 00 00 00 00 00	if r7 == 0x0 goto +0x8 <LBB16_12>
    2256:	b7 00 00 00 00 00 00 00	r0 = 0x0
    2257:	07 07 00 00 ff ff ff ff	r7 += -0x1
    2258:	bf 91 00 00 00 00 00 00	r1 = r9
    2259:	57 01 00 00 ff 00 00 00	r1 &= 0xff
    2260:	71 48 00 00 00 00 00 00	r8 = *(u8 *)(r4 + 0x0)
    2261:	07 04 00 00 01 00 00 00	r4 += 0x1
    2262:	1d 18 2c 00 00 00 00 00	if r8 == r1 goto +0x2c <LBB16_21>
    2263:	05 00 f7 ff 00 00 00 00	goto -0x9 <LBB16_10>

00000000000046c0 <LBB16_12>:
    2264:	bf 50 00 00 00 00 00 00	r0 = r5
    2265:	79 a4 e0 ff 00 00 00 00	r4 = *(u64 *)(r10 - 0x20)
    2266:	79 a8 e8 ff 00 00 00 00	r8 = *(u64 *)(r10 - 0x18)
    2267:	79 a1 f8 ff 00 00 00 00	r1 = *(u64 *)(r10 - 0x8)
    2268:	5d 12 dd ff 00 00 00 00	if r2 != r1 goto -0x23 <LBB16_2>

00000000000046e8 <LBB16_13>:
    2269:	b7 00 00 00 01 00 00 00	r0 = 0x1
    2270:	79 a1 f0 ff 00 00 00 00	r1 = *(u64 *)(r10 - 0x10)
    2271:	15 01 23 00 00 00 00 00	if r1 == 0x0 goto +0x23 <LBB16_21>
    2272:	bf 62 00 00 00 00 00 00	r2 = r6
    2273:	79 a1 f0 ff 00 00 00 00	r1 = *(u64 *)(r10 - 0x10)
    2274:	0f 12 00 00 00 00 00 00	r2 += r1
    2275:	b7 00 00 00 01 00 00 00	r0 = 0x1
    2276:	57 09 00 00 ff ff 00 00	r9 &= 0xffff
    2277:	bf 64 00 00 00 00 00 00	r4 = r6
    2278:	07 04 00 00 01 00 00 00	r4 += 0x1
    2279:	b7 03 00 00 00 00 00 00	r3 = 0x0

0000000000004740 <LBB16_15>:
    2280:	71 65 00 00 00 00 00 00	r5 = *(u8 *)(r6 + 0x0)
    2281:	bf 51 00 00 00 00 00 00	r1 = r5
    2282:	67 01 00 00 38 00 00 00	r1 <<= 0x38
    2283:	c7 01 00 00 38 00 00 00	r1 s>>= 0x38
    2284:	65 01 0d 00 ff ff ff ff	if r1 s> -0x1 goto +0xd <LBB16_19>
    2285:	5d 24 07 00 00 00 00 00	if r4 != r2 goto +0x7 <LBB16_18>
    2286:	18 01 00 00 c8 9e 00 00 00 00 00 00 00 00 00 00	r1 = 0x9ec8 ll
    2288:	b7 02 00 00 2b 00 00 00	r2 = 0x2b
    2289:	18 03 00 00 78 ab 00 00 00 00 00 00 00 00 00 00	r3 = 0xab78 ll
    2291:	85 10 00 00 77 07 00 00	call 0x777
    2292:	85 10 00 00 ff ff ff ff	call -0x1

00000000000047a8 <LBB16_18>:
    2293:	57 05 00 00 7f 00 00 00	r5 &= 0x7f
    2294:	67 05 00 00 08 00 00 00	r5 <<= 0x8
    2295:	71 41 00 00 00 00 00 00	r1 = *(u8 *)(r4 + 0x0)
    2296:	4f 15 00 00 00 00 00 00	r5 |= r1
    2297:	07 04 00 00 01 00 00 00	r4 += 0x1

00000000000047d0 <LBB16_19>:
    2298:	bf 46 00 00 00 00 00 00	r6 = r4
    2299:	1f 59 00 00 00 00 00 00	r9 -= r5
    2300:	67 09 00 00 20 00 00 00	r9 <<= 0x20
    2301:	c7 09 00 00 20 00 00 00	r9 s>>= 0x20
    2302:	6d 93 04 00 00 00 00 00	if r3 s> r9 goto +0x4 <LBB16_21>
    2303:	bf 64 00 00 00 00 00 00	r4 = r6
    2304:	07 04 00 00 01 00 00 00	r4 += 0x1
    2305:	a7 00 00 00 01 00 00 00	r0 ^= 0x1
    2306:	5d 26 e5 ff 00 00 00 00	if r6 != r2 goto -0x1b <LBB16_15>

0000000000004818 <LBB16_21>:
    2307:	57 00 00 00 01 00 00 00	r0 &= 0x1
    2308:	95 00 00 00 00 00 00 00	exit

0000000000004828 <_$LT$core..alloc..layout..LayoutError$u20$as$u20$core..fmt..Debug$GT$::fmt::h3d0b896737263896>:
    2309:	bf 27 00 00 00 00 00 00	r7 = r2
    2310:	bf 16 00 00 00 00 00 00	r6 = r1
    2311:	79 71 28 00 00 00 00 00	r1 = *(u64 *)(r7 + 0x28)
    2312:	79 14 18 00 00 00 00 00	r4 = *(u64 *)(r1 + 0x18)
    2313:	79 71 20 00 00 00 00 00	r1 = *(u64 *)(r7 + 0x20)
    2314:	18 02 00 00 52 a4 00 00 00 00 00 00 00 00 00 00	r2 = 0xa452 ll
    2316:	b7 03 00 00 0b 00 00 00	r3 = 0xb
    2317:	8d 00 00 00 04 00 00 00	callx r4
    2318:	b7 01 00 00 01 00 00 00	r1 = 0x1
    2319:	55 00 01 00 00 00 00 00	if r0 != 0x0 goto +0x1 <LBB35_2>
    2320:	b7 01 00 00 00 00 00 00	r1 = 0x0

0000000000004888 <LBB35_2>:
    2321:	7b 7a e8 ff 00 00 00 00	*(u64 *)(r10 - 0x18) = r7
    2322:	7b 1a f0 ff 00 00 00 00	*(u64 *)(r10 - 0x10) = r1
    2323:	7b 6a f8 ff 00 00 00 00	*(u64 *)(r10 - 0x8) = r6
    2324:	bf a1 00 00 00 00 00 00	r1 = r10
    2325:	07 01 00 00 e8 ff ff ff	r1 += -0x18
    2326:	bf a4 00 00 00 00 00 00	r4 = r10
    2327:	07 04 00 00 f8 ff ff ff	r4 += -0x8
    2328:	18 02 00 00 5d a4 00 00 00 00 00 00 00 00 00 00	r2 = 0xa45d ll
    2330:	b7 03 00 00 07 00 00 00	r3 = 0x7
    2331:	18 05 00 00 90 ab 00 00 00 00 00 00 00 00 00 00	r5 = 0xab90 ll
    2333:	85 10 00 00 1c 06 00 00	call 0x61c
    2334:	71 a0 f0 ff 00 00 00 00	r0 = *(u8 *)(r10 - 0x10)
    2335:	71 a1 f1 ff 00 00 00 00	r1 = *(u8 *)(r10 - 0xf)
    2336:	15 01 12 00 00 00 00 00	if r1 == 0x0 goto +0x12 <LBB35_8>
    2337:	bf 01 00 00 00 00 00 00	r1 = r0
    2338:	b7 00 00 00 01 00 00 00	r0 = 0x1
    2339:	55 01 0f 00 00 00 00 00	if r1 != 0x0 goto +0xf <LBB35_8>
    2340:	79 a2 e8 ff 00 00 00 00	r2 = *(u64 *)(r10 - 0x18)
    2341:	79 21 20 00 00 00 00 00	r1 = *(u64 *)(r2 + 0x20)
    2342:	79 23 28 00 00 00 00 00	r3 = *(u64 *)(r2 + 0x28)
    2343:	79 34 18 00 00 00 00 00	r4 = *(u64 *)(r3 + 0x18)
    2344:	61 22 30 00 00 00 00 00	r2 = *(u32 *)(r2 + 0x30)
    2345:	57 02 00 00 04 00 00 00	r2 &= 0x4
    2346:	15 02 04 00 00 00 00 00	if r2 == 0x0 goto +0x4 <LBB35_6>
    2347:	18 02 00 00 83 a8 00 00 00 00 00 00 00 00 00 00	r2 = 0xa883 ll
    2349:	b7 03 00 00 01 00 00 00	r3 = 0x1
    2350:	05 00 03 00 00 00 00 00	goto +0x3 <LBB35_7>

0000000000004978 <LBB35_6>:
    2351:	18 02 00 00 84 a8 00 00 00 00 00 00 00 00 00 00	r2 = 0xa884 ll
    2353:	b7 03 00 00 02 00 00 00	r3 = 0x2

0000000000004990 <LBB35_7>:
    2354:	8d 00 00 00 04 00 00 00	callx r4

0000000000004998 <LBB35_8>:
    2355:	57 00 00 00 ff 00 00 00	r0 &= 0xff
    2356:	b7 01 00 00 01 00 00 00	r1 = 0x1
    2357:	55 00 01 00 00 00 00 00	if r0 != 0x0 goto +0x1 <LBB35_10>
    2358:	b7 01 00 00 00 00 00 00	r1 = 0x0

00000000000049b8 <LBB35_10>:
    2359:	bf 10 00 00 00 00 00 00	r0 = r1
    2360:	95 00 00 00 00 00 00 00	exit

00000000000049c8 <core::result::unwrap_failed::h6008002e057a475b>:
    2361:	7b 2a 98 ff 00 00 00 00	*(u64 *)(r10 - 0x68) = r2
    2362:	7b 1a 90 ff 00 00 00 00	*(u64 *)(r10 - 0x70) = r1
    2363:	7b 4a a8 ff 00 00 00 00	*(u64 *)(r10 - 0x58) = r4
    2364:	7b 3a a0 ff 00 00 00 00	*(u64 *)(r10 - 0x60) = r3
    2365:	bf a1 00 00 00 00 00 00	r1 = r10
    2366:	07 01 00 00 e0 ff ff ff	r1 += -0x20
    2367:	7b 1a d0 ff 00 00 00 00	*(u64 *)(r10 - 0x30) = r1
    2368:	b7 01 00 00 00 00 00 00	r1 = 0x0
    2369:	7b 1a c0 ff 00 00 00 00	*(u64 *)(r10 - 0x40) = r1
    2370:	b7 01 00 00 02 00 00 00	r1 = 0x2
    2371:	7b 1a d8 ff 00 00 00 00	*(u64 *)(r10 - 0x28) = r1
    2372:	7b 1a b8 ff 00 00 00 00	*(u64 *)(r10 - 0x48) = r1
    2373:	18 01 00 00 c8 ab 00 00 00 00 00 00 00 00 00 00	r1 = 0xabc8 ll
    2375:	7b 1a b0 ff 00 00 00 00	*(u64 *)(r10 - 0x50) = r1
    2376:	18 01 00 00 40 72 00 00 00 00 00 00 00 00 00 00	r1 = 0x7240 ll
    2378:	7b 1a f8 ff 00 00 00 00	*(u64 *)(r10 - 0x8) = r1
    2379:	bf a1 00 00 00 00 00 00	r1 = r10
    2380:	07 01 00 00 a0 ff ff ff	r1 += -0x60
    2381:	7b 1a f0 ff 00 00 00 00	*(u64 *)(r10 - 0x10) = r1
    2382:	18 01 00 00 80 73 00 00 00 00 00 00 00 00 00 00	r1 = 0x7380 ll
    2384:	7b 1a e8 ff 00 00 00 00	*(u64 *)(r10 - 0x18) = r1
    2385:	bf a1 00 00 00 00 00 00	r1 = r10
    2386:	07 01 00 00 90 ff ff ff	r1 += -0x70
    2387:	7b 1a e0 ff 00 00 00 00	*(u64 *)(r10 - 0x20) = r1
    2388:	bf a1 00 00 00 00 00 00	r1 = r10
    2389:	07 01 00 00 b0 ff ff ff	r1 += -0x50
    2390:	bf 52 00 00 00 00 00 00	r2 = r5
    2391:	85 10 00 00 41 07 00 00	call 0x741
    2392:	85 10 00 00 ff ff ff ff	call -0x1

0000000000004ac8 <core::str::slice_error_fail::h4fb1c36600dac6c1>:
    2393:	7b 4a 38 ff 00 00 00 00	*(u64 *)(r10 - 0xc8) = r4
    2394:	7b 3a 30 ff 00 00 00 00	*(u64 *)(r10 - 0xd0) = r3
    2395:	b7 00 00 00 01 01 00 00	r0 = 0x101
    2396:	2d 20 19 00 00 00 00 00	if r0 > r2 goto +0x19 <LBB65_7>
    2397:	b7 00 00 00 ff 00 00 00	r0 = 0xff
    2398:	1f 20 00 00 00 00 00 00	r0 -= r2
    2399:	b7 06 00 00 00 01 00 00	r6 = 0x100

0000000000004b00 <LBB65_2>:
    2400:	3d 26 07 00 00 00 00 00	if r6 >= r2 goto +0x7 <LBB65_4>
    2401:	bf 17 00 00 00 00 00 00	r7 = r1
    2402:	0f 67 00 00 00 00 00 00	r7 += r6
    2403:	71 78 00 00 00 00 00 00	r8 = *(u8 *)(r7 + 0x0)
    2404:	67 08 00 00 38 00 00 00	r8 <<= 0x38
    2405:	c7 08 00 00 38 00 00 00	r8 s>>= 0x38
    2406:	bf 67 00 00 00 00 00 00	r7 = r6
    2407:	65 08 07 00 bf ff ff ff	if r8 s> -0x41 goto +0x7 <LBB65_6>

0000000000004b40 <LBB65_4>:
    2408:	bf 67 00 00 00 00 00 00	r7 = r6
    2409:	07 07 00 00 ff ff ff ff	r7 += -0x1
    2410:	15 06 04 00 01 00 00 00	if r6 == 0x1 goto +0x4 <LBB65_6>
    2411:	bf 08 00 00 00 00 00 00	r8 = r0
    2412:	0f 68 00 00 00 00 00 00	r8 += r6
    2413:	bf 76 00 00 00 00 00 00	r6 = r7
    2414:	55 08 f1 ff 00 01 00 00	if r8 != 0x100 goto -0xf <LBB65_2>

0000000000004b78 <LBB65_6>:
    2415:	7b 7a 48 ff 00 00 00 00	*(u64 *)(r10 - 0xb8) = r7
    2416:	7b 1a 40 ff 00 00 00 00	*(u64 *)(r10 - 0xc0) = r1
    2417:	18 00 00 00 a4 a4 00 00 00 00 00 00 00 00 00 00	r0 = 0xa4a4 ll
    2419:	7b 0a 50 ff 00 00 00 00	*(u64 *)(r10 - 0xb0) = r0
    2420:	b7 00 00 00 05 00 00 00	r0 = 0x5
    2421:	05 00 06 00 00 00 00 00	goto +0x6 <LBB65_8>

0000000000004bb0 <LBB65_7>:
    2422:	7b 2a 48 ff 00 00 00 00	*(u64 *)(r10 - 0xb8) = r2
    2423:	7b 1a 40 ff 00 00 00 00	*(u64 *)(r10 - 0xc0) = r1
    2424:	18 00 00 00 a2 a4 00 00 00 00 00 00 00 00 00 00	r0 = 0xa4a2 ll
    2426:	7b 0a 50 ff 00 00 00 00	*(u64 *)(r10 - 0xb0) = r0
    2427:	b7 00 00 00 00 00 00 00	r0 = 0x0

0000000000004be0 <LBB65_8>:
    2428:	7b 0a 58 ff 00 00 00 00	*(u64 *)(r10 - 0xa8) = r0
    2429:	2d 23 22 00 00 00 00 00	if r3 > r2 goto +0x22 <LBB65_11>
    2430:	2d 24 21 00 00 00 00 00	if r4 > r2 goto +0x21 <LBB65_11>
    2431:	2d 43 01 00 00 00 00 00	if r3 > r4 goto +0x1 <LBB65_15>
    2432:	05 00 42 00 00 00 00 00	goto +0x42 <LBB65_16>

0000000000004c08 <LBB65_15>:
    2433:	bf a1 00 00 00 00 00 00	r1 = r10
    2434:	07 01 00 00 b0 ff ff ff	r1 += -0x50
    2435:	7b 1a a0 ff 00 00 00 00	*(u64 *)(r10 - 0x60) = r1
    2436:	b7 01 00 00 00 00 00 00	r1 = 0x0
    2437:	7b 1a 90 ff 00 00 00 00	*(u64 *)(r10 - 0x70) = r1
    2438:	b7 01 00 00 04 00 00 00	r1 = 0x4
    2439:	7b 1a a8 ff 00 00 00 00	*(u64 *)(r10 - 0x58) = r1
    2440:	7b 1a 88 ff 00 00 00 00	*(u64 *)(r10 - 0x78) = r1
    2441:	18 01 00 00 18 ac 00 00 00 00 00 00 00 00 00 00	r1 = 0xac18 ll
    2443:	7b 1a 80 ff 00 00 00 00	*(u64 *)(r10 - 0x80) = r1
    2444:	bf a1 00 00 00 00 00 00	r1 = r10
    2445:	07 01 00 00 50 ff ff ff	r1 += -0xb0
    2446:	7b 1a e0 ff 00 00 00 00	*(u64 *)(r10 - 0x20) = r1
    2447:	18 01 00 00 80 73 00 00 00 00 00 00 00 00 00 00	r1 = 0x7380 ll
    2449:	7b 1a e8 ff 00 00 00 00	*(u64 *)(r10 - 0x18) = r1
    2450:	7b 1a d8 ff 00 00 00 00	*(u64 *)(r10 - 0x28) = r1
    2451:	bf a1 00 00 00 00 00 00	r1 = r10
    2452:	07 01 00 00 40 ff ff ff	r1 += -0xc0
    2453:	7b 1a d0 ff 00 00 00 00	*(u64 *)(r10 - 0x30) = r1
    2454:	bf a1 00 00 00 00 00 00	r1 = r10
    2455:	07 01 00 00 38 ff ff ff	r1 += -0xc8
    2456:	7b 1a c0 ff 00 00 00 00	*(u64 *)(r10 - 0x40) = r1
    2457:	18 01 00 00 c8 32 00 00 00 00 00 00 00 00 00 00	r1 = 0x32c8 ll
    2459:	7b 1a c8 ff 00 00 00 00	*(u64 *)(r10 - 0x38) = r1
    2460:	7b 1a b8 ff 00 00 00 00	*(u64 *)(r10 - 0x48) = r1
    2461:	bf a1 00 00 00 00 00 00	r1 = r10
    2462:	07 01 00 00 30 ff ff ff	r1 += -0xd0
    2463:	05 00 1d 00 00 00 00 00	goto +0x1d <LBB65_14>

0000000000004d00 <LBB65_11>:
    2464:	2d 23 01 00 00 00 00 00	if r3 > r2 goto +0x1 <LBB65_13>
    2465:	bf 43 00 00 00 00 00 00	r3 = r4

0000000000004d10 <LBB65_13>:
    2466:	7b 3a 70 ff 00 00 00 00	*(u64 *)(r10 - 0x90) = r3
    2467:	bf a1 00 00 00 00 00 00	r1 = r10
    2468:	07 01 00 00 b0 ff ff ff	r1 += -0x50
    2469:	7b 1a a0 ff 00 00 00 00	*(u64 *)(r10 - 0x60) = r1
    2470:	b7 01 00 00 00 00 00 00	r1 = 0x0
    2471:	7b 1a 90 ff 00 00 00 00	*(u64 *)(r10 - 0x70) = r1
    2472:	b7 01 00 00 03 00 00 00	r1 = 0x3
    2473:	7b 1a a8 ff 00 00 00 00	*(u64 *)(r10 - 0x58) = r1
    2474:	7b 1a 88 ff 00 00 00 00	*(u64 *)(r10 - 0x78) = r1
    2475:	18 01 00 00 e8 ab 00 00 00 00 00 00 00 00 00 00	r1 = 0xabe8 ll
    2477:	7b 1a 80 ff 00 00 00 00	*(u64 *)(r10 - 0x80) = r1
    2478:	bf a1 00 00 00 00 00 00	r1 = r10
    2479:	07 01 00 00 50 ff ff ff	r1 += -0xb0
    2480:	7b 1a d0 ff 00 00 00 00	*(u64 *)(r10 - 0x30) = r1
    2481:	18 01 00 00 80 73 00 00 00 00 00 00 00 00 00 00	r1 = 0x7380 ll
    2483:	7b 1a d8 ff 00 00 00 00	*(u64 *)(r10 - 0x28) = r1
    2484:	7b 1a c8 ff 00 00 00 00	*(u64 *)(r10 - 0x38) = r1
    2485:	bf a1 00 00 00 00 00 00	r1 = r10
    2486:	07 01 00 00 40 ff ff ff	r1 += -0xc0
    2487:	7b 1a c0 ff 00 00 00 00	*(u64 *)(r10 - 0x40) = r1
    2488:	18 01 00 00 c8 32 00 00 00 00 00 00 00 00 00 00	r1 = 0x32c8 ll
    2490:	7b 1a b8 ff 00 00 00 00	*(u64 *)(r10 - 0x48) = r1
    2491:	bf a1 00 00 00 00 00 00	r1 = r10
    2492:	07 01 00 00 70 ff ff ff	r1 += -0x90

0000000000004de8 <LBB65_14>:
    2493:	7b 1a b0 ff 00 00 00 00	*(u64 *)(r10 - 0x50) = r1
    2494:	bf a1 00 00 00 00 00 00	r1 = r10
    2495:	07 01 00 00 80 ff ff ff	r1 += -0x80
    2496:	bf 52 00 00 00 00 00 00	r2 = r5
    2497:	85 10 00 00 d7 06 00 00	call 0x6d7
    2498:	85 10 00 00 ff ff ff ff	call -0x1

0000000000004e18 <LBB65_16>:
    2499:	15 03 09 00 00 00 00 00	if r3 == 0x0 goto +0x9 <LBB65_20>
    2500:	1d 32 08 00 00 00 00 00	if r2 == r3 goto +0x8 <LBB65_20>
    2501:	3d 23 08 00 00 00 00 00	if r3 >= r2 goto +0x8 <LBB65_21>
    2502:	bf 10 00 00 00 00 00 00	r0 = r1
    2503:	0f 30 00 00 00 00 00 00	r0 += r3
    2504:	71 00 00 00 00 00 00 00	r0 = *(u8 *)(r0 + 0x0)
    2505:	67 00 00 00 38 00 00 00	r0 <<= 0x38
    2506:	c7 00 00 00 38 00 00 00	r0 s>>= 0x38
    2507:	b7 06 00 00 c0 ff ff ff	r6 = -0x40
    2508:	6d 06 01 00 00 00 00 00	if r6 s> r0 goto +0x1 <LBB65_21>

0000000000004e68 <LBB65_20>:
    2509:	bf 43 00 00 00 00 00 00	r3 = r4

0000000000004e70 <LBB65_21>:
    2510:	7b 3a 60 ff 00 00 00 00	*(u64 *)(r10 - 0xa0) = r3
    2511:	15 03 12 00 00 00 00 00	if r3 == 0x0 goto +0x12 <LBB65_27>
    2512:	1d 23 11 00 00 00 00 00	if r3 == r2 goto +0x11 <LBB65_27>
    2513:	bf 24 00 00 00 00 00 00	r4 = r2
    2514:	07 04 00 00 01 00 00 00	r4 += 0x1
    2515:	b7 00 00 00 c0 ff ff ff	r0 = -0x40
    2516:	05 00 04 00 00 00 00 00	goto +0x4 <LBB65_24>

0000000000004ea8 <LBB65_45>:
    2517:	bf 63 00 00 00 00 00 00	r3 = r6
    2518:	07 03 00 00 ff ff ff ff	r3 += -0x1
    2519:	15 06 0a 00 01 00 00 00	if r6 == 0x1 goto +0xa <LBB65_27>
    2520:	1d 64 09 00 00 00 00 00	if r4 == r6 goto +0x9 <LBB65_27>

0000000000004ec8 <LBB65_24>:
    2521:	bf 36 00 00 00 00 00 00	r6 = r3
    2522:	3d 26 fa ff 00 00 00 00	if r6 >= r2 goto -0x6 <LBB65_45>
    2523:	bf 13 00 00 00 00 00 00	r3 = r1
    2524:	0f 63 00 00 00 00 00 00	r3 += r6
    2525:	71 33 00 00 00 00 00 00	r3 = *(u8 *)(r3 + 0x0)
    2526:	67 03 00 00 38 00 00 00	r3 <<= 0x38
    2527:	c7 03 00 00 38 00 00 00	r3 s>>= 0x38
    2528:	6d 30 f4 ff 00 00 00 00	if r0 s> r3 goto -0xc <LBB65_45>
    2529:	bf 63 00 00 00 00 00 00	r3 = r6

0000000000004f10 <LBB65_27>:
    2530:	1d 23 5f 00 00 00 00 00	if r3 == r2 goto +0x5f <LBB65_39>
    2531:	bf 16 00 00 00 00 00 00	r6 = r1
    2532:	0f 36 00 00 00 00 00 00	r6 += r3
    2533:	71 64 00 00 00 00 00 00	r4 = *(u8 *)(r6 + 0x0)
    2534:	bf 47 00 00 00 00 00 00	r7 = r4
    2535:	67 07 00 00 38 00 00 00	r7 <<= 0x38
    2536:	c7 07 00 00 38 00 00 00	r7 s>>= 0x38
    2537:	b7 00 00 00 00 00 00 00	r0 = 0x0
    2538:	6d 70 2c 00 00 00 00 00	if r0 s> r7 goto +0x2c <LBB65_30>
    2539:	63 4a 6c ff 00 00 00 00	*(u32 *)(r10 - 0x94) = r4
    2540:	b7 01 00 00 01 00 00 00	r1 = 0x1

0000000000004f68 <LBB65_44>:
    2541:	7b 3a 70 ff 00 00 00 00	*(u64 *)(r10 - 0x90) = r3
    2542:	0f 31 00 00 00 00 00 00	r1 += r3
    2543:	7b 1a 78 ff 00 00 00 00	*(u64 *)(r10 - 0x88) = r1
    2544:	bf a1 00 00 00 00 00 00	r1 = r10
    2545:	07 01 00 00 b0 ff ff ff	r1 += -0x50
    2546:	7b 1a a0 ff 00 00 00 00	*(u64 *)(r10 - 0x60) = r1
    2547:	b7 01 00 00 00 00 00 00	r1 = 0x0
    2548:	7b 1a 90 ff 00 00 00 00	*(u64 *)(r10 - 0x70) = r1
    2549:	b7 01 00 00 05 00 00 00	r1 = 0x5
    2550:	7b 1a a8 ff 00 00 00 00	*(u64 *)(r10 - 0x58) = r1
    2551:	7b 1a 88 ff 00 00 00 00	*(u64 *)(r10 - 0x78) = r1
    2552:	18 01 00 00 58 ac 00 00 00 00 00 00 00 00 00 00	r1 = 0xac58 ll
    2554:	7b 1a 80 ff 00 00 00 00	*(u64 *)(r10 - 0x80) = r1
    2555:	bf a1 00 00 00 00 00 00	r1 = r10
    2556:	07 01 00 00 50 ff ff ff	r1 += -0xb0
    2557:	7b 1a f0 ff 00 00 00 00	*(u64 *)(r10 - 0x10) = r1
    2558:	18 01 00 00 80 73 00 00 00 00 00 00 00 00 00 00	r1 = 0x7380 ll
    2560:	7b 1a f8 ff 00 00 00 00	*(u64 *)(r10 - 0x8) = r1
    2561:	7b 1a e8 ff 00 00 00 00	*(u64 *)(r10 - 0x18) = r1
    2562:	bf a1 00 00 00 00 00 00	r1 = r10
    2563:	07 01 00 00 40 ff ff ff	r1 += -0xc0
    2564:	7b 1a e0 ff 00 00 00 00	*(u64 *)(r10 - 0x20) = r1
    2565:	18 01 00 00 10 39 00 00 00 00 00 00 00 00 00 00	r1 = 0x3910 ll
    2567:	7b 1a d8 ff 00 00 00 00	*(u64 *)(r10 - 0x28) = r1
    2568:	bf a1 00 00 00 00 00 00	r1 = r10
    2569:	07 01 00 00 70 ff ff ff	r1 += -0x90
    2570:	7b 1a d0 ff 00 00 00 00	*(u64 *)(r10 - 0x30) = r1
    2571:	18 01 00 00 e0 69 00 00 00 00 00 00 00 00 00 00	r1 = 0x69e0 ll
    2573:	7b 1a c8 ff 00 00 00 00	*(u64 *)(r10 - 0x38) = r1
    2574:	bf a1 00 00 00 00 00 00	r1 = r10
    2575:	07 01 00 00 6c ff ff ff	r1 += -0x94
    2576:	7b 1a c0 ff 00 00 00 00	*(u64 *)(r10 - 0x40) = r1
    2577:	18 01 00 00 c8 32 00 00 00 00 00 00 00 00 00 00	r1 = 0x32c8 ll
    2579:	7b 1a b8 ff 00 00 00 00	*(u64 *)(r10 - 0x48) = r1
    2580:	bf a1 00 00 00 00 00 00	r1 = r10
    2581:	07 01 00 00 60 ff ff ff	r1 += -0xa0
    2582:	05 00 a6 ff 00 00 00 00	goto -0x5a <LBB65_14>

00000000000050b8 <LBB65_30>:
    2583:	0f 21 00 00 00 00 00 00	r1 += r2
    2584:	bf 67 00 00 00 00 00 00	r7 = r6
    2585:	07 07 00 00 01 00 00 00	r7 += 0x1
    2586:	bf 42 00 00 00 00 00 00	r2 = r4
    2587:	57 02 00 00 1f 00 00 00	r2 &= 0x1f
    2588:	bf 18 00 00 00 00 00 00	r8 = r1
    2589:	1d 17 04 00 00 00 00 00	if r7 == r1 goto +0x4 <LBB65_32>
    2590:	71 60 01 00 00 00 00 00	r0 = *(u8 *)(r6 + 0x1)
    2591:	07 06 00 00 02 00 00 00	r6 += 0x2
    2592:	57 00 00 00 3f 00 00 00	r0 &= 0x3f
    2593:	bf 68 00 00 00 00 00 00	r8 = r6

0000000000005110 <LBB65_32>:
    2594:	bf 26 00 00 00 00 00 00	r6 = r2
    2595:	67 06 00 00 06 00 00 00	r6 <<= 0x6
    2596:	bf 07 00 00 00 00 00 00	r7 = r0
    2597:	4f 67 00 00 00 00 00 00	r7 |= r6
    2598:	b7 06 00 00 e0 00 00 00	r6 = 0xe0
    2599:	2d 46 20 00 00 00 00 00	if r6 > r4 goto +0x20 <LBB65_40>
    2600:	b7 06 00 00 00 00 00 00	r6 = 0x0
    2601:	bf 19 00 00 00 00 00 00	r9 = r1
    2602:	1d 18 04 00 00 00 00 00	if r8 == r1 goto +0x4 <LBB65_35>
    2603:	71 86 00 00 00 00 00 00	r6 = *(u8 *)(r8 + 0x0)
    2604:	07 08 00 00 01 00 00 00	r8 += 0x1
    2605:	57 06 00 00 3f 00 00 00	r6 &= 0x3f
    2606:	bf 89 00 00 00 00 00 00	r9 = r8

0000000000005178 <LBB65_35>:
    2607:	67 00 00 00 06 00 00 00	r0 <<= 0x6
    2608:	4f 06 00 00 00 00 00 00	r6 |= r0
    2609:	bf 20 00 00 00 00 00 00	r0 = r2
    2610:	67 00 00 00 0c 00 00 00	r0 <<= 0xc
    2611:	bf 67 00 00 00 00 00 00	r7 = r6
    2612:	4f 07 00 00 00 00 00 00	r7 |= r0
    2613:	b7 00 00 00 f0 00 00 00	r0 = 0xf0
    2614:	2d 40 11 00 00 00 00 00	if r0 > r4 goto +0x11 <LBB65_40>
    2615:	b7 04 00 00 00 00 00 00	r4 = 0x0
    2616:	1d 19 02 00 00 00 00 00	if r9 == r1 goto +0x2 <LBB65_38>
    2617:	71 94 00 00 00 00 00 00	r4 = *(u8 *)(r9 + 0x0)
    2618:	57 04 00 00 3f 00 00 00	r4 &= 0x3f

00000000000051d8 <LBB65_38>:
    2619:	67 06 00 00 06 00 00 00	r6 <<= 0x6
    2620:	67 02 00 00 12 00 00 00	r2 <<= 0x12
    2621:	57 02 00 00 00 00 1c 00	r2 &= 0x1c0000
    2622:	4f 26 00 00 00 00 00 00	r6 |= r2
    2623:	4f 46 00 00 00 00 00 00	r6 |= r4
    2624:	bf 67 00 00 00 00 00 00	r7 = r6
    2625:	55 06 06 00 00 00 11 00	if r6 != 0x110000 goto +0x6 <LBB65_40>

0000000000005210 <LBB65_39>:
    2626:	18 01 00 00 77 a4 00 00 00 00 00 00 00 00 00 00	r1 = 0xa477 ll
    2628:	b7 02 00 00 2b 00 00 00	r2 = 0x2b
    2629:	bf 53 00 00 00 00 00 00	r3 = r5
    2630:	85 10 00 00 24 06 00 00	call 0x624
    2631:	85 10 00 00 ff ff ff ff	call -0x1

0000000000005240 <LBB65_40>:
    2632:	b7 01 00 00 01 00 00 00	r1 = 0x1
    2633:	63 7a 6c ff 00 00 00 00	*(u32 *)(r10 - 0x94) = r7
    2634:	b7 02 00 00 80 00 00 00	r2 = 0x80
    2635:	2d 72 a1 ff 00 00 00 00	if r2 > r7 goto -0x5f <LBB65_44>
    2636:	b7 01 00 00 02 00 00 00	r1 = 0x2
    2637:	b7 02 00 00 00 08 00 00	r2 = 0x800
    2638:	2d 72 9e ff 00 00 00 00	if r2 > r7 goto -0x62 <LBB65_44>
    2639:	b7 01 00 00 03 00 00 00	r1 = 0x3
    2640:	b7 02 00 00 00 00 01 00	r2 = 0x10000
    2641:	2d 72 9b ff 00 00 00 00	if r2 > r7 goto -0x65 <LBB65_44>
    2642:	b7 01 00 00 04 00 00 00	r1 = 0x4
    2643:	05 00 99 ff 00 00 00 00	goto -0x67 <LBB65_44>

00000000000052a0 <core::unicode::unicode_data::grapheme_extend::lookup::h5467b0bcce8e4604>:
    2644:	b7 02 00 00 00 00 00 00	r2 = 0x0
    2645:	b7 03 00 00 1f 00 00 00	r3 = 0x1f
    2646:	bf 14 00 00 00 00 00 00	r4 = r1
    2647:	67 04 00 00 0b 00 00 00	r4 <<= 0xb
    2648:	b7 05 00 00 1f 00 00 00	r5 = 0x1f
    2649:	05 00 06 00 00 00 00 00	goto +0x6 <LBB89_1>

00000000000052d0 <LBB89_3>:
    2650:	07 03 00 00 01 00 00 00	r3 += 0x1
    2651:	bf 32 00 00 00 00 00 00	r2 = r3
    2652:	bf 53 00 00 00 00 00 00	r3 = r5

00000000000052e8 <LBB89_4>:
    2653:	1f 23 00 00 00 00 00 00	r3 -= r2
    2654:	2d 25 01 00 00 00 00 00	if r5 > r2 goto +0x1 <LBB89_1>
    2655:	05 00 14 00 00 00 00 00	goto +0x14 <LBB89_6>

0000000000005300 <LBB89_1>:
    2656:	77 03 00 00 01 00 00 00	r3 >>= 0x1
    2657:	0f 23 00 00 00 00 00 00	r3 += r2
    2658:	bf 30 00 00 00 00 00 00	r0 = r3
    2659:	67 00 00 00 02 00 00 00	r0 <<= 0x2
    2660:	18 06 00 00 30 a5 00 00 00 00 00 00 00 00 00 00	r6 = 0xa530 ll
    2662:	0f 06 00 00 00 00 00 00	r6 += r0
    2663:	61 60 00 00 00 00 00 00	r0 = *(u32 *)(r6 + 0x0)
    2664:	67 00 00 00 0b 00 00 00	r0 <<= 0xb
    2665:	67 00 00 00 20 00 00 00	r0 <<= 0x20
    2666:	bf 46 00 00 00 00 00 00	r6 = r4
    2667:	67 06 00 00 20 00 00 00	r6 <<= 0x20
    2668:	77 00 00 00 20 00 00 00	r0 >>= 0x20
    2669:	77 06 00 00 20 00 00 00	r6 >>= 0x20
    2670:	2d 06 eb ff 00 00 00 00	if r6 > r0 goto -0x15 <LBB89_3>
    2671:	bf 35 00 00 00 00 00 00	r5 = r3
    2672:	1d 60 01 00 00 00 00 00	if r0 == r6 goto +0x1 <LBB89_5>
    2673:	05 00 eb ff 00 00 00 00	goto -0x15 <LBB89_4>

0000000000005390 <LBB89_5>:
    2674:	07 03 00 00 01 00 00 00	r3 += 0x1
    2675:	bf 32 00 00 00 00 00 00	r2 = r3

00000000000053a0 <LBB89_6>:
    2676:	25 02 45 00 1e 00 00 00	if r2 > 0x1e goto +0x45 <LBB89_20>
    2677:	bf 25 00 00 00 00 00 00	r5 = r2
    2678:	67 05 00 00 02 00 00 00	r5 <<= 0x2
    2679:	18 00 00 00 30 a5 00 00 00 00 00 00 00 00 00 00	r0 = 0xa530 ll
    2681:	b7 04 00 00 b1 02 00 00	r4 = 0x2b1
    2682:	15 02 04 00 1e 00 00 00	if r2 == 0x1e goto +0x4 <LBB89_9>
    2683:	bf 53 00 00 00 00 00 00	r3 = r5
    2684:	0f 03 00 00 00 00 00 00	r3 += r0
    2685:	61 34 04 00 00 00 00 00	r4 = *(u32 *)(r3 + 0x4)
    2686:	77 04 00 00 15 00 00 00	r4 >>= 0x15

00000000000053f8 <LBB89_9>:
    2687:	bf 23 00 00 00 00 00 00	r3 = r2
    2688:	07 03 00 00 ff ff ff ff	r3 += -0x1
    2689:	b7 06 00 00 00 00 00 00	r6 = 0x0
    2690:	b7 07 00 00 01 00 00 00	r7 = 0x1
    2691:	2d 23 01 00 00 00 00 00	if r3 > r2 goto +0x1 <LBB89_11>
    2692:	b7 07 00 00 00 00 00 00	r7 = 0x0

0000000000005428 <LBB89_11>:
    2693:	57 07 00 00 01 00 00 00	r7 &= 0x1
    2694:	55 07 0e 00 00 00 00 00	if r7 != 0x0 goto +0xe <LBB89_15>
    2695:	b7 02 00 00 1f 00 00 00	r2 = 0x1f
    2696:	2d 32 06 00 00 00 00 00	if r2 > r3 goto +0x6 <LBB89_14>
    2697:	bf 31 00 00 00 00 00 00	r1 = r3
    2698:	b7 02 00 00 1f 00 00 00	r2 = 0x1f
    2699:	18 03 00 00 d8 ac 00 00 00 00 00 00 00 00 00 00	r3 = 0xacd8 ll
    2701:	85 10 00 00 ef 05 00 00	call 0x5ef
    2702:	85 10 00 00 ff ff ff ff	call -0x1

0000000000005478 <LBB89_14>:
    2703:	67 03 00 00 02 00 00 00	r3 <<= 0x2
    2704:	18 02 00 00 30 a5 00 00 00 00 00 00 00 00 00 00	r2 = 0xa530 ll
    2706:	0f 32 00 00 00 00 00 00	r2 += r3
    2707:	61 26 00 00 00 00 00 00	r6 = *(u32 *)(r2 + 0x0)
    2708:	57 06 00 00 ff ff 1f 00	r6 &= 0x1fffff

00000000000054a8 <LBB89_15>:
    2709:	0f 50 00 00 00 00 00 00	r0 += r5
    2710:	61 00 00 00 00 00 00 00	r0 = *(u32 *)(r0 + 0x0)
    2711:	77 00 00 00 15 00 00 00	r0 >>= 0x15
    2712:	bf 02 00 00 00 00 00 00	r2 = r0
    2713:	a7 02 00 00 ff ff ff ff	r2 ^= -0x1
    2714:	bf 43 00 00 00 00 00 00	r3 = r4
    2715:	0f 23 00 00 00 00 00 00	r3 += r2
    2716:	15 03 15 00 00 00 00 00	if r3 == 0x0 goto +0x15 <LBB89_22>
    2717:	1f 61 00 00 00 00 00 00	r1 -= r6
    2718:	b7 03 00 00 00 00 00 00	r3 = 0x0
    2719:	07 04 00 00 ff ff ff ff	r4 += -0x1
    2720:	67 01 00 00 20 00 00 00	r1 <<= 0x20
    2721:	77 01 00 00 20 00 00 00	r1 >>= 0x20
    2722:	bf 02 00 00 00 00 00 00	r2 = r0

0000000000005518 <LBB89_17>:
    2723:	25 02 10 00 b0 02 00 00	if r2 > 0x2b0 goto +0x10 <LBB89_21>
    2724:	18 05 00 00 ac a5 00 00 00 00 00 00 00 00 00 00	r5 = 0xa5ac ll
    2726:	0f 25 00 00 00 00 00 00	r5 += r2
    2727:	71 55 00 00 00 00 00 00	r5 = *(u8 *)(r5 + 0x0)
    2728:	0f 53 00 00 00 00 00 00	r3 += r5
    2729:	bf 35 00 00 00 00 00 00	r5 = r3
    2730:	67 05 00 00 20 00 00 00	r5 <<= 0x20
    2731:	77 05 00 00 20 00 00 00	r5 >>= 0x20
    2732:	bf 20 00 00 00 00 00 00	r0 = r2
    2733:	2d 15 04 00 00 00 00 00	if r5 > r1 goto +0x4 <LBB89_22>
    2734:	07 02 00 00 01 00 00 00	r2 += 0x1
    2735:	bf 40 00 00 00 00 00 00	r0 = r4
    2736:	1d 24 01 00 00 00 00 00	if r4 == r2 goto +0x1 <LBB89_22>
    2737:	05 00 f1 ff 00 00 00 00	goto -0xf <LBB89_17>

0000000000005590 <LBB89_22>:
    2738:	57 00 00 00 01 00 00 00	r0 &= 0x1
    2739:	95 00 00 00 00 00 00 00	exit

00000000000055a0 <LBB89_21>:
    2740:	bf 21 00 00 00 00 00 00	r1 = r2
    2741:	b7 02 00 00 b1 02 00 00	r2 = 0x2b1
    2742:	18 03 00 00 c0 ac 00 00 00 00 00 00 00 00 00 00	r3 = 0xacc0 ll
    2744:	85 10 00 00 c4 05 00 00	call 0x5c4
    2745:	85 10 00 00 ff ff ff ff	call -0x1

00000000000055d0 <LBB89_20>:
    2746:	bf 21 00 00 00 00 00 00	r1 = r2
    2747:	b7 02 00 00 1f 00 00 00	r2 = 0x1f
    2748:	18 03 00 00 a8 ac 00 00 00 00 00 00 00 00 00 00	r3 = 0xaca8 ll
    2750:	85 10 00 00 be 05 00 00	call 0x5be
    2751:	85 10 00 00 ff ff ff ff	call -0x1

0000000000005600 <core::ops::function::FnOnce::call_once::h6954899161febe5b (.llvm.225590920328294910)>:
    2752:	79 11 00 00 00 00 00 00	r1 = *(u64 *)(r1 + 0x0)
    2753:	85 10 00 00 ff ff ff ff	call -0x1
    2754:	85 10 00 00 ff ff ff ff	call -0x1

0000000000005618 <core::ptr::drop_in_place$LT$core..fmt..builders..PadAdapter$GT$::h864d951a1b6b1c47 (.llvm.225590920328294910)>:
    2755:	95 00 00 00 00 00 00 00	exit

0000000000005620 <core::fmt::write::h91a1de576e93e3d3>:
    2756:	bf 36 00 00 00 00 00 00	r6 = r3
    2757:	b7 03 00 00 03 00 00 00	r3 = 0x3
    2758:	73 3a f8 ff 00 00 00 00	*(u8 *)(r10 - 0x8) = r3
    2759:	18 03 00 00 00 00 00 00 00 00 00 00 20 00 00 00	r3 = 0x2000000000 ll
    2761:	7b 3a f0 ff 00 00 00 00	*(u64 *)(r10 - 0x10) = r3
    2762:	7b 2a e8 ff 00 00 00 00	*(u64 *)(r10 - 0x18) = r2
    2763:	7b 1a e0 ff 00 00 00 00	*(u64 *)(r10 - 0x20) = r1
    2764:	b7 03 00 00 00 00 00 00	r3 = 0x0
    2765:	7b 3a d0 ff 00 00 00 00	*(u64 *)(r10 - 0x30) = r3
    2766:	7b 3a c0 ff 00 00 00 00	*(u64 *)(r10 - 0x40) = r3
    2767:	79 69 10 00 00 00 00 00	r9 = *(u64 *)(r6 + 0x10)
    2768:	15 09 60 00 00 00 00 00	if r9 == 0x0 goto +0x60 <LBB12_7>
    2769:	79 64 18 00 00 00 00 00	r4 = *(u64 *)(r6 + 0x18)
    2770:	27 04 00 00 38 00 00 00	r4 *= 0x38
    2771:	37 04 00 00 38 00 00 00	r4 /= 0x38
    2772:	79 65 08 00 00 00 00 00	r5 = *(u64 *)(r6 + 0x8)
    2773:	bf 50 00 00 00 00 00 00	r0 = r5
    2774:	7b 5a a0 ff 00 00 00 00	*(u64 *)(r10 - 0x60) = r5
    2775:	2d 54 01 00 00 00 00 00	if r4 > r5 goto +0x1 <LBB12_3>
    2776:	bf 40 00 00 00 00 00 00	r0 = r4

00000000000056c8 <LBB12_3>:
    2777:	79 64 00 00 00 00 00 00	r4 = *(u64 *)(r6 + 0x0)
    2778:	7b 4a b8 ff 00 00 00 00	*(u64 *)(r10 - 0x48) = r4
    2779:	15 00 7f 00 00 00 00 00	if r0 == 0x0 goto +0x7f <LBB12_27>
    2780:	7b 0a b0 ff 00 00 00 00	*(u64 *)(r10 - 0x50) = r0
    2781:	79 24 18 00 00 00 00 00	r4 = *(u64 *)(r2 + 0x18)
    2782:	79 a2 b8 ff 00 00 00 00	r2 = *(u64 *)(r10 - 0x48)
    2783:	79 23 08 00 00 00 00 00	r3 = *(u64 *)(r2 + 0x8)
    2784:	79 22 00 00 00 00 00 00	r2 = *(u64 *)(r2 + 0x0)
    2785:	8d 00 00 00 04 00 00 00	callx r4
    2786:	55 00 76 00 00 00 00 00	if r0 != 0x0 goto +0x76 <LBB12_30>
    2787:	b7 08 00 00 00 00 00 00	r8 = 0x0
    2788:	79 a1 b0 ff 00 00 00 00	r1 = *(u64 *)(r10 - 0x50)
    2789:	67 01 00 00 04 00 00 00	r1 <<= 0x4
    2790:	7b 1a a8 ff 00 00 00 00	*(u64 *)(r10 - 0x58) = r1
    2791:	07 09 00 00 30 00 00 00	r9 += 0x30
    2792:	79 66 20 00 00 00 00 00	r6 = *(u64 *)(r6 + 0x20)
    2793:	05 00 1d 00 00 00 00 00	goto +0x1d <LBB12_6>

0000000000005750 <LBB12_23>:
    2794:	b7 02 00 00 01 00 00 00	r2 = 0x1

0000000000005758 <LBB12_24>:
    2795:	7b 1a d8 ff 00 00 00 00	*(u64 *)(r10 - 0x28) = r1
    2796:	7b 2a d0 ff 00 00 00 00	*(u64 *)(r10 - 0x30) = r2
    2797:	79 91 d0 ff 00 00 00 00	r1 = *(u64 *)(r9 - 0x30)
    2798:	67 01 00 00 04 00 00 00	r1 <<= 0x4
    2799:	bf 62 00 00 00 00 00 00	r2 = r6
    2800:	0f 12 00 00 00 00 00 00	r2 += r1
    2801:	79 21 00 00 00 00 00 00	r1 = *(u64 *)(r2 + 0x0)
    2802:	79 23 08 00 00 00 00 00	r3 = *(u64 *)(r2 + 0x8)
    2803:	bf a2 00 00 00 00 00 00	r2 = r10
    2804:	07 02 00 00 c0 ff ff ff	r2 += -0x40
    2805:	8d 00 00 00 03 00 00 00	callx r3
    2806:	55 00 62 00 00 00 00 00	if r0 != 0x0 goto +0x62 <LBB12_30>
    2807:	bf 87 00 00 00 00 00 00	r7 = r8
    2808:	07 07 00 00 10 00 00 00	r7 += 0x10
    2809:	79 a3 b0 ff 00 00 00 00	r3 = *(u64 *)(r10 - 0x50)
    2810:	79 a1 a8 ff 00 00 00 00	r1 = *(u64 *)(r10 - 0x58)
    2811:	1d 71 5f 00 00 00 00 00	if r1 == r7 goto +0x5f <LBB12_27>
    2812:	07 09 00 00 38 00 00 00	r9 += 0x38
    2813:	79 a1 b8 ff 00 00 00 00	r1 = *(u64 *)(r10 - 0x48)
    2814:	0f 81 00 00 00 00 00 00	r1 += r8
    2815:	79 13 18 00 00 00 00 00	r3 = *(u64 *)(r1 + 0x18)
    2816:	79 12 10 00 00 00 00 00	r2 = *(u64 *)(r1 + 0x10)
    2817:	79 a1 e8 ff 00 00 00 00	r1 = *(u64 *)(r10 - 0x18)
    2818:	79 14 18 00 00 00 00 00	r4 = *(u64 *)(r1 + 0x18)
    2819:	79 a1 e0 ff 00 00 00 00	r1 = *(u64 *)(r10 - 0x20)
    2820:	8d 00 00 00 04 00 00 00	callx r4
    2821:	bf 78 00 00 00 00 00 00	r8 = r7
    2822:	55 00 52 00 00 00 00 00	if r0 != 0x0 goto +0x52 <LBB12_30>

0000000000005838 <LBB12_6>:
    2823:	61 91 f8 ff 00 00 00 00	r1 = *(u32 *)(r9 - 0x8)
    2824:	63 1a f4 ff 00 00 00 00	*(u32 *)(r10 - 0xc) = r1
    2825:	71 91 00 00 00 00 00 00	r1 = *(u8 *)(r9 + 0x0)
    2826:	73 1a f8 ff 00 00 00 00	*(u8 *)(r10 - 0x8) = r1
    2827:	61 91 fc ff 00 00 00 00	r1 = *(u32 *)(r9 - 0x4)
    2828:	63 1a f0 ff 00 00 00 00	*(u32 *)(r10 - 0x10) = r1
    2829:	79 91 f0 ff 00 00 00 00	r1 = *(u64 *)(r9 - 0x10)
    2830:	79 93 e8 ff 00 00 00 00	r3 = *(u64 *)(r9 - 0x18)
    2831:	15 03 0e 00 00 00 00 00	if r3 == 0x0 goto +0xe <LBB12_18>
    2832:	b7 02 00 00 00 00 00 00	r2 = 0x0
    2833:	15 03 0d 00 02 00 00 00	if r3 == 0x2 goto +0xd <LBB12_19>
    2834:	67 01 00 00 04 00 00 00	r1 <<= 0x4
    2835:	bf 63 00 00 00 00 00 00	r3 = r6
    2836:	0f 13 00 00 00 00 00 00	r3 += r1
    2837:	79 34 08 00 00 00 00 00	r4 = *(u64 *)(r3 + 0x8)
    2838:	b7 02 00 00 00 00 00 00	r2 = 0x0
    2839:	18 05 00 00 00 56 00 00 00 00 00 00 00 00 00 00	r5 = 0x5600 ll
    2841:	5d 54 05 00 00 00 00 00	if r4 != r5 goto +0x5 <LBB12_19>
    2842:	b7 02 00 00 01 00 00 00	r2 = 0x1
    2843:	79 31 00 00 00 00 00 00	r1 = *(u64 *)(r3 + 0x0)
    2844:	79 11 00 00 00 00 00 00	r1 = *(u64 *)(r1 + 0x0)
    2845:	05 00 01 00 00 00 00 00	goto +0x1 <LBB12_19>

00000000000058f0 <LBB12_18>:
    2846:	b7 02 00 00 01 00 00 00	r2 = 0x1

00000000000058f8 <LBB12_19>:
    2847:	7b 1a c8 ff 00 00 00 00	*(u64 *)(r10 - 0x38) = r1
    2848:	7b 2a c0 ff 00 00 00 00	*(u64 *)(r10 - 0x40) = r2
    2849:	79 91 e0 ff 00 00 00 00	r1 = *(u64 *)(r9 - 0x20)
    2850:	79 93 d8 ff 00 00 00 00	r3 = *(u64 *)(r9 - 0x28)
    2851:	15 03 c6 ff 00 00 00 00	if r3 == 0x0 goto -0x3a <LBB12_23>
    2852:	b7 02 00 00 00 00 00 00	r2 = 0x0
    2853:	15 03 c5 ff 02 00 00 00	if r3 == 0x2 goto -0x3b <LBB12_24>
    2854:	67 01 00 00 04 00 00 00	r1 <<= 0x4
    2855:	bf 63 00 00 00 00 00 00	r3 = r6
    2856:	0f 13 00 00 00 00 00 00	r3 += r1
    2857:	79 34 08 00 00 00 00 00	r4 = *(u64 *)(r3 + 0x8)
    2858:	18 05 00 00 00 56 00 00 00 00 00 00 00 00 00 00	r5 = 0x5600 ll
    2860:	5d 54 be ff 00 00 00 00	if r4 != r5 goto -0x42 <LBB12_24>
    2861:	b7 02 00 00 01 00 00 00	r2 = 0x1
    2862:	79 31 00 00 00 00 00 00	r1 = *(u64 *)(r3 + 0x0)
    2863:	79 11 00 00 00 00 00 00	r1 = *(u64 *)(r1 + 0x0)
    2864:	05 00 ba ff 00 00 00 00	goto -0x46 <LBB12_24>

0000000000005988 <LBB12_7>:
    2865:	79 65 08 00 00 00 00 00	r5 = *(u64 *)(r6 + 0x8)
    2866:	79 64 28 00 00 00 00 00	r4 = *(u64 *)(r6 + 0x28)
    2867:	bf 58 00 00 00 00 00 00	r8 = r5
    2868:	7b 5a a0 ff 00 00 00 00	*(u64 *)(r10 - 0x60) = r5
    2869:	2d 54 01 00 00 00 00 00	if r4 > r5 goto +0x1 <LBB12_9>
    2870:	bf 48 00 00 00 00 00 00	r8 = r4

00000000000059b8 <LBB12_9>:
    2871:	79 64 00 00 00 00 00 00	r4 = *(u64 *)(r6 + 0x0)
    2872:	7b 4a b8 ff 00 00 00 00	*(u64 *)(r10 - 0x48) = r4
    2873:	15 08 21 00 00 00 00 00	if r8 == 0x0 goto +0x21 <LBB12_27>
    2874:	79 66 20 00 00 00 00 00	r6 = *(u64 *)(r6 + 0x20)
    2875:	79 24 18 00 00 00 00 00	r4 = *(u64 *)(r2 + 0x18)
    2876:	79 a2 b8 ff 00 00 00 00	r2 = *(u64 *)(r10 - 0x48)
    2877:	79 23 08 00 00 00 00 00	r3 = *(u64 *)(r2 + 0x8)
    2878:	79 22 00 00 00 00 00 00	r2 = *(u64 *)(r2 + 0x0)
    2879:	8d 00 00 00 04 00 00 00	callx r4
    2880:	55 00 18 00 00 00 00 00	if r0 != 0x0 goto +0x18 <LBB12_30>
    2881:	b7 09 00 00 00 00 00 00	r9 = 0x0
    2882:	bf 87 00 00 00 00 00 00	r7 = r8

0000000000005a18 <LBB12_12>:
    2883:	bf 62 00 00 00 00 00 00	r2 = r6
    2884:	0f 92 00 00 00 00 00 00	r2 += r9
    2885:	79 21 00 00 00 00 00 00	r1 = *(u64 *)(r2 + 0x0)
    2886:	79 23 08 00 00 00 00 00	r3 = *(u64 *)(r2 + 0x8)
    2887:	bf a2 00 00 00 00 00 00	r2 = r10
    2888:	07 02 00 00 c0 ff ff ff	r2 += -0x40
    2889:	8d 00 00 00 03 00 00 00	callx r3
    2890:	55 00 0e 00 00 00 00 00	if r0 != 0x0 goto +0xe <LBB12_30>
    2891:	07 07 00 00 ff ff ff ff	r7 += -0x1
    2892:	bf 83 00 00 00 00 00 00	r3 = r8
    2893:	15 07 0d 00 00 00 00 00	if r7 == 0x0 goto +0xd <LBB12_27>
    2894:	79 a1 b8 ff 00 00 00 00	r1 = *(u64 *)(r10 - 0x48)
    2895:	0f 91 00 00 00 00 00 00	r1 += r9
    2896:	07 09 00 00 10 00 00 00	r9 += 0x10
    2897:	79 13 18 00 00 00 00 00	r3 = *(u64 *)(r1 + 0x18)
    2898:	79 12 10 00 00 00 00 00	r2 = *(u64 *)(r1 + 0x10)
    2899:	79 a1 e8 ff 00 00 00 00	r1 = *(u64 *)(r10 - 0x18)
    2900:	79 14 18 00 00 00 00 00	r4 = *(u64 *)(r1 + 0x18)
    2901:	79 a1 e0 ff 00 00 00 00	r1 = *(u64 *)(r10 - 0x20)
    2902:	8d 00 00 00 04 00 00 00	callx r4
    2903:	55 00 01 00 00 00 00 00	if r0 != 0x0 goto +0x1 <LBB12_30>
    2904:	05 00 ea ff 00 00 00 00	goto -0x16 <LBB12_12>

0000000000005ac8 <LBB12_30>:
    2905:	b7 00 00 00 01 00 00 00	r0 = 0x1
    2906:	05 00 0d 00 00 00 00 00	goto +0xd <LBB12_31>

0000000000005ad8 <LBB12_27>:
    2907:	79 a1 a0 ff 00 00 00 00	r1 = *(u64 *)(r10 - 0x60)
    2908:	3d 13 0a 00 00 00 00 00	if r3 >= r1 goto +0xa <LBB12_29>
    2909:	67 03 00 00 04 00 00 00	r3 <<= 0x4
    2910:	79 a1 b8 ff 00 00 00 00	r1 = *(u64 *)(r10 - 0x48)
    2911:	0f 31 00 00 00 00 00 00	r1 += r3
    2912:	79 13 08 00 00 00 00 00	r3 = *(u64 *)(r1 + 0x8)
    2913:	79 12 00 00 00 00 00 00	r2 = *(u64 *)(r1 + 0x0)
    2914:	79 a1 e8 ff 00 00 00 00	r1 = *(u64 *)(r10 - 0x18)
    2915:	79 14 18 00 00 00 00 00	r4 = *(u64 *)(r1 + 0x18)
    2916:	79 a1 e0 ff 00 00 00 00	r1 = *(u64 *)(r10 - 0x20)
    2917:	8d 00 00 00 04 00 00 00	callx r4
    2918:	55 00 f2 ff 00 00 00 00	if r0 != 0x0 goto -0xe <LBB12_30>

0000000000005b38 <LBB12_29>:
    2919:	b7 00 00 00 00 00 00 00	r0 = 0x0

0000000000005b40 <LBB12_31>:
    2920:	95 00 00 00 00 00 00 00	exit

0000000000005b48 <core::fmt::Formatter::pad_integral::hd53d53d498bd0771>:
    2921:	bf 16 00 00 00 00 00 00	r6 = r1
    2922:	79 50 08 f0 00 00 00 00	r0 = *(u64 *)(r5 - 0xff8)
    2923:	55 02 03 00 00 00 00 00	if r2 != 0x0 goto +0x3 <LBB14_2>
    2924:	b7 08 00 00 2d 00 00 00	r8 = 0x2d
    2925:	61 61 30 00 00 00 00 00	r1 = *(u32 *)(r6 + 0x30)
    2926:	05 00 07 00 00 00 00 00	goto +0x7 <LBB14_4>

0000000000005b78 <LBB14_2>:
    2927:	b7 08 00 00 00 00 11 00	r8 = 0x110000
    2928:	61 61 30 00 00 00 00 00	r1 = *(u32 *)(r6 + 0x30)
    2929:	bf 12 00 00 00 00 00 00	r2 = r1
    2930:	57 02 00 00 01 00 00 00	r2 &= 0x1
    2931:	bf 09 00 00 00 00 00 00	r9 = r0
    2932:	15 02 03 00 00 00 00 00	if r2 == 0x0 goto +0x3 <LBB14_5>
    2933:	b7 08 00 00 2b 00 00 00	r8 = 0x2b

0000000000005bb0 <LBB14_4>:
    2934:	bf 09 00 00 00 00 00 00	r9 = r0
    2935:	07 09 00 00 01 00 00 00	r9 += 0x1

0000000000005bc0 <LBB14_5>:
    2936:	7b 0a f0 ff 00 00 00 00	*(u64 *)(r10 - 0x10) = r0
    2937:	b7 07 00 00 00 00 00 00	r7 = 0x0
    2938:	bf 12 00 00 00 00 00 00	r2 = r1
    2939:	57 02 00 00 04 00 00 00	r2 &= 0x4
    2940:	15 02 18 00 00 00 00 00	if r2 == 0x0 goto +0x18 <LBB14_12>
    2941:	7b 8a e0 ff 00 00 00 00	*(u64 *)(r10 - 0x20) = r8
    2942:	b7 02 00 00 00 00 00 00	r2 = 0x0
    2943:	7b 4a f8 ff 00 00 00 00	*(u64 *)(r10 - 0x8) = r4
    2944:	15 04 08 00 00 00 00 00	if r4 == 0x0 goto +0x8 <LBB14_11>
    2945:	b7 02 00 00 00 00 00 00	r2 = 0x0
    2946:	79 a4 f8 ff 00 00 00 00	r4 = *(u64 *)(r10 - 0x8)
    2947:	bf 30 00 00 00 00 00 00	r0 = r3
    2948:	05 00 0a 00 00 00 00 00	goto +0xa <LBB14_8>

0000000000005c28 <LBB14_10>:
    2949:	0f 72 00 00 00 00 00 00	r2 += r7
    2950:	07 00 00 00 01 00 00 00	r0 += 0x1
    2951:	07 04 00 00 ff ff ff ff	r4 += -0x1
    2952:	55 04 06 00 00 00 00 00	if r4 != 0x0 goto +0x6 <LBB14_8>

0000000000005c48 <LBB14_11>:
    2953:	0f 92 00 00 00 00 00 00	r2 += r9
    2954:	bf 37 00 00 00 00 00 00	r7 = r3
    2955:	bf 29 00 00 00 00 00 00	r9 = r2
    2956:	79 a4 f8 ff 00 00 00 00	r4 = *(u64 *)(r10 - 0x8)
    2957:	79 a8 e0 ff 00 00 00 00	r8 = *(u64 *)(r10 - 0x20)
    2958:	05 00 06 00 00 00 00 00	goto +0x6 <LBB14_12>

0000000000005c78 <LBB14_8>:
    2959:	71 08 00 00 00 00 00 00	r8 = *(u8 *)(r0 + 0x0)
    2960:	57 08 00 00 c0 00 00 00	r8 &= 0xc0
    2961:	b7 07 00 00 01 00 00 00	r7 = 0x1
    2962:	55 08 f2 ff 80 00 00 00	if r8 != 0x80 goto -0xe <LBB14_10>
    2963:	b7 07 00 00 00 00 00 00	r7 = 0x0
    2964:	05 00 f0 ff 00 00 00 00	goto -0x10 <LBB14_10>

0000000000005ca8 <LBB14_12>:
    2965:	79 52 00 f0 00 00 00 00	r2 = *(u64 *)(r5 - 0x1000)
    2966:	7b 2a e8 ff 00 00 00 00	*(u64 *)(r10 - 0x18) = r2
    2967:	79 62 00 00 00 00 00 00	r2 = *(u64 *)(r6 + 0x0)
    2968:	15 02 0e 00 01 00 00 00	if r2 == 0x1 goto +0xe <LBB14_15>
    2969:	bf 61 00 00 00 00 00 00	r1 = r6
    2970:	bf 82 00 00 00 00 00 00	r2 = r8
    2971:	bf 73 00 00 00 00 00 00	r3 = r7
    2972:	85 10 00 00 9f 00 00 00	call 0x9f
    2973:	b7 08 00 00 01 00 00 00	r8 = 0x1
    2974:	55 00 7e 00 00 00 00 00	if r0 != 0x0 goto +0x7e <LBB14_49>

0000000000005cf8 <LBB14_14>:
    2975:	79 61 20 00 00 00 00 00	r1 = *(u64 *)(r6 + 0x20)
    2976:	79 62 28 00 00 00 00 00	r2 = *(u64 *)(r6 + 0x28)
    2977:	79 24 18 00 00 00 00 00	r4 = *(u64 *)(r2 + 0x18)
    2978:	79 a2 e8 ff 00 00 00 00	r2 = *(u64 *)(r10 - 0x18)
    2979:	79 a3 f0 ff 00 00 00 00	r3 = *(u64 *)(r10 - 0x10)
    2980:	8d 00 00 00 04 00 00 00	callx r4
    2981:	bf 08 00 00 00 00 00 00	r8 = r0
    2982:	05 00 76 00 00 00 00 00	goto +0x76 <LBB14_49>

0000000000005d38 <LBB14_15>:
    2983:	79 65 08 00 00 00 00 00	r5 = *(u64 *)(r6 + 0x8)
    2984:	2d 95 07 00 00 00 00 00	if r5 > r9 goto +0x7 <LBB14_17>
    2985:	bf 61 00 00 00 00 00 00	r1 = r6
    2986:	bf 82 00 00 00 00 00 00	r2 = r8
    2987:	bf 73 00 00 00 00 00 00	r3 = r7
    2988:	85 10 00 00 8f 00 00 00	call 0x8f
    2989:	b7 08 00 00 01 00 00 00	r8 = 0x1
    2990:	55 00 6e 00 00 00 00 00	if r0 != 0x0 goto +0x6e <LBB14_49>
    2991:	05 00 ef ff 00 00 00 00	goto -0x11 <LBB14_14>

0000000000005d80 <LBB14_17>:
    2992:	57 01 00 00 08 00 00 00	r1 &= 0x8
    2993:	15 01 1f 00 00 00 00 00	if r1 == 0x0 goto +0x1f <LBB14_19>
    2994:	7b 5a f8 ff 00 00 00 00	*(u64 *)(r10 - 0x8) = r5
    2995:	61 61 34 00 00 00 00 00	r1 = *(u32 *)(r6 + 0x34)
    2996:	7b 1a e0 ff 00 00 00 00	*(u64 *)(r10 - 0x20) = r1
    2997:	b7 01 00 00 30 00 00 00	r1 = 0x30
    2998:	63 16 34 00 00 00 00 00	*(u32 *)(r6 + 0x34) = r1
    2999:	71 61 38 00 00 00 00 00	r1 = *(u8 *)(r6 + 0x38)
    3000:	7b 1a d8 ff 00 00 00 00	*(u64 *)(r10 - 0x28) = r1
    3001:	bf 82 00 00 00 00 00 00	r2 = r8
    3002:	b7 08 00 00 01 00 00 00	r8 = 0x1
    3003:	73 86 38 00 00 00 00 00	*(u8 *)(r6 + 0x38) = r8
    3004:	bf 61 00 00 00 00 00 00	r1 = r6
    3005:	bf 73 00 00 00 00 00 00	r3 = r7
    3006:	85 10 00 00 7d 00 00 00	call 0x7d
    3007:	55 00 5d 00 00 00 00 00	if r0 != 0x0 goto +0x5d <LBB14_49>
    3008:	71 62 38 00 00 00 00 00	r2 = *(u8 *)(r6 + 0x38)
    3009:	b7 01 00 00 01 00 00 00	r1 = 0x1
    3010:	15 02 01 00 03 00 00 00	if r2 == 0x3 goto +0x1 <LBB14_30>
    3011:	bf 21 00 00 00 00 00 00	r1 = r2

0000000000005e20 <LBB14_30>:
    3012:	79 a2 f8 ff 00 00 00 00	r2 = *(u64 *)(r10 - 0x8)
    3013:	1f 92 00 00 00 00 00 00	r2 -= r9
    3014:	b7 09 00 00 00 00 00 00	r9 = 0x0
    3015:	57 01 00 00 03 00 00 00	r1 &= 0x3
    3016:	bf 27 00 00 00 00 00 00	r7 = r2
    3017:	15 01 48 00 00 00 00 00	if r1 == 0x0 goto +0x48 <LBB14_34>
    3018:	15 01 45 00 01 00 00 00	if r1 == 0x1 goto +0x45 <LBB14_33>
    3019:	bf 29 00 00 00 00 00 00	r9 = r2
    3020:	77 09 00 00 01 00 00 00	r9 >>= 0x1
    3021:	07 02 00 00 01 00 00 00	r2 += 0x1
    3022:	77 02 00 00 01 00 00 00	r2 >>= 0x1
    3023:	bf 27 00 00 00 00 00 00	r7 = r2
    3024:	05 00 41 00 00 00 00 00	goto +0x41 <LBB14_34>

0000000000005e88 <LBB14_19>:
    3025:	71 62 38 00 00 00 00 00	r2 = *(u8 *)(r6 + 0x38)
    3026:	b7 01 00 00 01 00 00 00	r1 = 0x1
    3027:	15 02 01 00 03 00 00 00	if r2 == 0x3 goto +0x1 <LBB14_21>
    3028:	bf 21 00 00 00 00 00 00	r1 = r2

0000000000005ea8 <LBB14_21>:
    3029:	1f 95 00 00 00 00 00 00	r5 -= r9
    3030:	b7 09 00 00 00 00 00 00	r9 = 0x0
    3031:	57 01 00 00 03 00 00 00	r1 &= 0x3
    3032:	bf 52 00 00 00 00 00 00	r2 = r5
    3033:	15 01 09 00 00 00 00 00	if r1 == 0x0 goto +0x9 <LBB14_25>
    3034:	15 01 06 00 01 00 00 00	if r1 == 0x1 goto +0x6 <LBB14_24>
    3035:	bf 59 00 00 00 00 00 00	r9 = r5
    3036:	77 09 00 00 01 00 00 00	r9 >>= 0x1
    3037:	07 05 00 00 01 00 00 00	r5 += 0x1
    3038:	77 05 00 00 01 00 00 00	r5 >>= 0x1
    3039:	bf 52 00 00 00 00 00 00	r2 = r5
    3040:	05 00 02 00 00 00 00 00	goto +0x2 <LBB14_25>

0000000000005f08 <LBB14_24>:
    3041:	b7 02 00 00 00 00 00 00	r2 = 0x0
    3042:	bf 59 00 00 00 00 00 00	r9 = r5

0000000000005f18 <LBB14_25>:
    3043:	7b 2a d8 ff 00 00 00 00	*(u64 *)(r10 - 0x28) = r2
    3044:	7b 8a e0 ff 00 00 00 00	*(u64 *)(r10 - 0x20) = r8
    3045:	7b 4a f8 ff 00 00 00 00	*(u64 *)(r10 - 0x8) = r4
    3046:	07 09 00 00 01 00 00 00	r9 += 0x1
    3047:	b7 08 00 00 01 00 00 00	r8 = 0x1

0000000000005f40 <LBB14_26>:
    3048:	07 09 00 00 ff ff ff ff	r9 += -0x1
    3049:	15 09 07 00 00 00 00 00	if r9 == 0x0 goto +0x7 <LBB14_42>
    3050:	61 62 34 00 00 00 00 00	r2 = *(u32 *)(r6 + 0x34)
    3051:	79 61 20 00 00 00 00 00	r1 = *(u64 *)(r6 + 0x20)
    3052:	79 63 28 00 00 00 00 00	r3 = *(u64 *)(r6 + 0x28)
    3053:	79 33 20 00 00 00 00 00	r3 = *(u64 *)(r3 + 0x20)
    3054:	8d 00 00 00 03 00 00 00	callx r3
    3055:	55 00 2d 00 00 00 00 00	if r0 != 0x0 goto +0x2d <LBB14_49>
    3056:	05 00 f7 ff 00 00 00 00	goto -0x9 <LBB14_26>

0000000000005f88 <LBB14_42>:
    3057:	61 69 34 00 00 00 00 00	r9 = *(u32 *)(r6 + 0x34)
    3058:	bf 61 00 00 00 00 00 00	r1 = r6
    3059:	79 a2 e0 ff 00 00 00 00	r2 = *(u64 *)(r10 - 0x20)
    3060:	bf 73 00 00 00 00 00 00	r3 = r7
    3061:	79 a4 f8 ff 00 00 00 00	r4 = *(u64 *)(r10 - 0x8)
    3062:	85 10 00 00 45 00 00 00	call 0x45
    3063:	b7 08 00 00 01 00 00 00	r8 = 0x1
    3064:	55 00 24 00 00 00 00 00	if r0 != 0x0 goto +0x24 <LBB14_49>
    3065:	79 61 20 00 00 00 00 00	r1 = *(u64 *)(r6 + 0x20)
    3066:	79 62 28 00 00 00 00 00	r2 = *(u64 *)(r6 + 0x28)
    3067:	79 24 18 00 00 00 00 00	r4 = *(u64 *)(r2 + 0x18)
    3068:	79 a2 e8 ff 00 00 00 00	r2 = *(u64 *)(r10 - 0x18)
    3069:	79 a3 f0 ff 00 00 00 00	r3 = *(u64 *)(r10 - 0x10)
    3070:	8d 00 00 00 04 00 00 00	callx r4
    3071:	55 00 1d 00 00 00 00 00	if r0 != 0x0 goto +0x1d <LBB14_49>
    3072:	79 a8 d8 ff 00 00 00 00	r8 = *(u64 *)(r10 - 0x28)
    3073:	07 08 00 00 01 00 00 00	r8 += 0x1
    3074:	79 67 28 00 00 00 00 00	r7 = *(u64 *)(r6 + 0x28)
    3075:	79 66 20 00 00 00 00 00	r6 = *(u64 *)(r6 + 0x20)

0000000000006020 <LBB14_45>:
    3076:	07 08 00 00 ff ff ff ff	r8 += -0x1
    3077:	15 08 05 00 00 00 00 00	if r8 == 0x0 goto +0x5 <LBB14_47>
    3078:	79 73 20 00 00 00 00 00	r3 = *(u64 *)(r7 + 0x20)
    3079:	bf 61 00 00 00 00 00 00	r1 = r6
    3080:	bf 92 00 00 00 00 00 00	r2 = r9
    3081:	8d 00 00 00 03 00 00 00	callx r3
    3082:	15 00 f9 ff 00 00 00 00	if r0 == 0x0 goto -0x7 <LBB14_45>

0000000000006058 <LBB14_47>:
    3083:	bf 81 00 00 00 00 00 00	r1 = r8
    3084:	b7 08 00 00 01 00 00 00	r8 = 0x1
    3085:	55 01 0f 00 00 00 00 00	if r1 != 0x0 goto +0xf <LBB14_49>

0000000000006070 <LBB14_48>:
    3086:	b7 08 00 00 00 00 00 00	r8 = 0x0
    3087:	05 00 0d 00 00 00 00 00	goto +0xd <LBB14_49>

0000000000006080 <LBB14_33>:
    3088:	b7 07 00 00 00 00 00 00	r7 = 0x0
    3089:	bf 29 00 00 00 00 00 00	r9 = r2

0000000000006090 <LBB14_34>:
    3090:	07 09 00 00 01 00 00 00	r9 += 0x1
    3091:	b7 08 00 00 01 00 00 00	r8 = 0x1

00000000000060a0 <LBB14_35>:
    3092:	07 09 00 00 ff ff ff ff	r9 += -0x1
    3093:	15 09 0a 00 00 00 00 00	if r9 == 0x0 goto +0xa <LBB14_37>
    3094:	61 62 34 00 00 00 00 00	r2 = *(u32 *)(r6 + 0x34)
    3095:	79 61 20 00 00 00 00 00	r1 = *(u64 *)(r6 + 0x20)
    3096:	79 63 28 00 00 00 00 00	r3 = *(u64 *)(r6 + 0x28)
    3097:	79 33 20 00 00 00 00 00	r3 = *(u64 *)(r3 + 0x20)
    3098:	8d 00 00 00 03 00 00 00	callx r3
    3099:	55 00 01 00 00 00 00 00	if r0 != 0x0 goto +0x1 <LBB14_49>
    3100:	05 00 f7 ff 00 00 00 00	goto -0x9 <LBB14_35>

00000000000060e8 <LBB14_49>:
    3101:	57 08 00 00 01 00 00 00	r8 &= 0x1
    3102:	bf 80 00 00 00 00 00 00	r0 = r8
    3103:	95 00 00 00 00 00 00 00	exit

0000000000006100 <LBB14_37>:
    3104:	61 61 34 00 00 00 00 00	r1 = *(u32 *)(r6 + 0x34)
    3105:	7b 1a f8 ff 00 00 00 00	*(u64 *)(r10 - 0x8) = r1
    3106:	79 61 20 00 00 00 00 00	r1 = *(u64 *)(r6 + 0x20)
    3107:	79 62 28 00 00 00 00 00	r2 = *(u64 *)(r6 + 0x28)
    3108:	79 24 18 00 00 00 00 00	r4 = *(u64 *)(r2 + 0x18)
    3109:	79 a2 e8 ff 00 00 00 00	r2 = *(u64 *)(r10 - 0x18)
    3110:	79 a3 f0 ff 00 00 00 00	r3 = *(u64 *)(r10 - 0x10)
    3111:	8d 00 00 00 04 00 00 00	callx r4
    3112:	b7 08 00 00 01 00 00 00	r8 = 0x1
    3113:	55 00 f3 ff 00 00 00 00	if r0 != 0x0 goto -0xd <LBB14_49>
    3114:	07 07 00 00 01 00 00 00	r7 += 0x1
    3115:	79 61 28 00 00 00 00 00	r1 = *(u64 *)(r6 + 0x28)
    3116:	7b 1a f0 ff 00 00 00 00	*(u64 *)(r10 - 0x10) = r1
    3117:	79 69 20 00 00 00 00 00	r9 = *(u64 *)(r6 + 0x20)

0000000000006170 <LBB14_39>:
    3118:	07 07 00 00 ff ff ff ff	r7 += -0x1
    3119:	15 07 07 00 00 00 00 00	if r7 == 0x0 goto +0x7 <LBB14_41>
    3120:	79 a1 f0 ff 00 00 00 00	r1 = *(u64 *)(r10 - 0x10)
    3121:	79 13 20 00 00 00 00 00	r3 = *(u64 *)(r1 + 0x20)
    3122:	bf 91 00 00 00 00 00 00	r1 = r9
    3123:	79 a2 f8 ff 00 00 00 00	r2 = *(u64 *)(r10 - 0x8)
    3124:	8d 00 00 00 03 00 00 00	callx r3
    3125:	55 00 e7 ff 00 00 00 00	if r0 != 0x0 goto -0x19 <LBB14_49>
    3126:	05 00 f7 ff 00 00 00 00	goto -0x9 <LBB14_39>

00000000000061b8 <LBB14_41>:
    3127:	79 a1 d8 ff 00 00 00 00	r1 = *(u64 *)(r10 - 0x28)
    3128:	73 16 38 00 00 00 00 00	*(u8 *)(r6 + 0x38) = r1
    3129:	79 a1 e0 ff 00 00 00 00	r1 = *(u64 *)(r10 - 0x20)
    3130:	63 16 34 00 00 00 00 00	*(u32 *)(r6 + 0x34) = r1
    3131:	05 00 d2 ff 00 00 00 00	goto -0x2e <LBB14_48>

00000000000061e0 <core::fmt::Formatter::pad_integral::write_prefix::hb2323373ba9d498c>:
    3132:	bf 46 00 00 00 00 00 00	r6 = r4
    3133:	bf 37 00 00 00 00 00 00	r7 = r3
    3134:	bf 18 00 00 00 00 00 00	r8 = r1
    3135:	bf 21 00 00 00 00 00 00	r1 = r2
    3136:	67 01 00 00 20 00 00 00	r1 <<= 0x20
    3137:	77 01 00 00 20 00 00 00	r1 >>= 0x20
    3138:	15 01 07 00 00 00 11 00	if r1 == 0x110000 goto +0x7 <LBB15_2>
    3139:	79 81 20 00 00 00 00 00	r1 = *(u64 *)(r8 + 0x20)
    3140:	79 83 28 00 00 00 00 00	r3 = *(u64 *)(r8 + 0x28)
    3141:	79 33 20 00 00 00 00 00	r3 = *(u64 *)(r3 + 0x20)
    3142:	8d 00 00 00 03 00 00 00	callx r3
    3143:	bf 01 00 00 00 00 00 00	r1 = r0
    3144:	b7 00 00 00 01 00 00 00	r0 = 0x1
    3145:	55 01 08 00 00 00 00 00	if r1 != 0x0 goto +0x8 <LBB15_4>

0000000000006250 <LBB15_2>:
    3146:	b7 00 00 00 00 00 00 00	r0 = 0x0
    3147:	15 07 06 00 00 00 00 00	if r7 == 0x0 goto +0x6 <LBB15_4>
    3148:	79 81 20 00 00 00 00 00	r1 = *(u64 *)(r8 + 0x20)
    3149:	79 82 28 00 00 00 00 00	r2 = *(u64 *)(r8 + 0x28)
    3150:	79 24 18 00 00 00 00 00	r4 = *(u64 *)(r2 + 0x18)
    3151:	bf 72 00 00 00 00 00 00	r2 = r7
    3152:	bf 63 00 00 00 00 00 00	r3 = r6
    3153:	8d 00 00 00 04 00 00 00	callx r4

0000000000006290 <LBB15_4>:
    3154:	95 00 00 00 00 00 00 00	exit

0000000000006298 <core::fmt::Formatter::pad::hbdc06a919bfaaa6c>:
    3155:	bf 36 00 00 00 00 00 00	r6 = r3
    3156:	bf 17 00 00 00 00 00 00	r7 = r1
    3157:	79 71 10 00 00 00 00 00	r1 = *(u64 *)(r7 + 0x10)
    3158:	79 73 00 00 00 00 00 00	r3 = *(u64 *)(r7 + 0x0)
    3159:	55 03 a9 00 01 00 00 00	if r3 != 0x1 goto +0xa9 <LBB16_2>
    3160:	15 01 01 00 01 00 00 00	if r1 == 0x1 goto +0x1 <LBB16_4>
    3161:	05 00 7d 00 00 00 00 00	goto +0x7d <LBB16_41>

00000000000062d0 <LBB16_4>:
    3162:	7b 3a e8 ff 00 00 00 00	*(u64 *)(r10 - 0x18) = r3
    3163:	b7 03 00 00 00 00 00 00	r3 = 0x0
    3164:	bf 21 00 00 00 00 00 00	r1 = r2
    3165:	7b 6a f0 ff 00 00 00 00	*(u64 *)(r10 - 0x10) = r6
    3166:	0f 61 00 00 00 00 00 00	r1 += r6
    3167:	7b 7a e0 ff 00 00 00 00	*(u64 *)(r10 - 0x20) = r7
    3168:	79 74 18 00 00 00 00 00	r4 = *(u64 *)(r7 + 0x18)
    3169:	7b 2a f8 ff 00 00 00 00	*(u64 *)(r10 - 0x8) = r2
    3170:	15 04 34 00 00 00 00 00	if r4 == 0x0 goto +0x34 <LBB16_18>
    3171:	b7 03 00 00 00 00 00 00	r3 = 0x0
    3172:	79 a2 f8 ff 00 00 00 00	r2 = *(u64 *)(r10 - 0x8)

0000000000006328 <LBB16_6>:
    3173:	bf 29 00 00 00 00 00 00	r9 = r2
    3174:	bf 30 00 00 00 00 00 00	r0 = r3
    3175:	1d 19 69 00 00 00 00 00	if r9 == r1 goto +0x69 <LBB16_39>
    3176:	bf 96 00 00 00 00 00 00	r6 = r9
    3177:	07 06 00 00 01 00 00 00	r6 += 0x1
    3178:	71 93 00 00 00 00 00 00	r3 = *(u8 *)(r9 + 0x0)
    3179:	bf 35 00 00 00 00 00 00	r5 = r3
    3180:	67 05 00 00 38 00 00 00	r5 <<= 0x38
    3181:	c7 05 00 00 38 00 00 00	r5 s>>= 0x38
    3182:	bf 62 00 00 00 00 00 00	r2 = r6
    3183:	65 05 22 00 ff ff ff ff	if r5 s> -0x1 goto +0x22 <LBB16_17>
    3184:	b7 05 00 00 00 00 00 00	r5 = 0x0
    3185:	bf 12 00 00 00 00 00 00	r2 = r1
    3186:	1d 16 04 00 00 00 00 00	if r6 == r1 goto +0x4 <LBB16_10>
    3187:	bf 92 00 00 00 00 00 00	r2 = r9
    3188:	07 02 00 00 02 00 00 00	r2 += 0x2
    3189:	71 95 01 00 00 00 00 00	r5 = *(u8 *)(r9 + 0x1)
    3190:	57 05 00 00 3f 00 00 00	r5 &= 0x3f

00000000000063b8 <LBB16_10>:
    3191:	b7 06 00 00 e0 00 00 00	r6 = 0xe0
    3192:	2d 36 19 00 00 00 00 00	if r6 > r3 goto +0x19 <LBB16_17>
    3193:	b7 06 00 00 00 00 00 00	r6 = 0x0
    3194:	bf 18 00 00 00 00 00 00	r8 = r1
    3195:	1d 12 04 00 00 00 00 00	if r2 == r1 goto +0x4 <LBB16_13>
    3196:	71 26 00 00 00 00 00 00	r6 = *(u8 *)(r2 + 0x0)
    3197:	07 02 00 00 01 00 00 00	r2 += 0x1
    3198:	57 06 00 00 3f 00 00 00	r6 &= 0x3f
    3199:	bf 28 00 00 00 00 00 00	r8 = r2

0000000000006400 <LBB16_13>:
    3200:	bf 82 00 00 00 00 00 00	r2 = r8
    3201:	b7 07 00 00 f0 00 00 00	r7 = 0xf0
    3202:	2d 37 0f 00 00 00 00 00	if r7 > r3 goto +0xf <LBB16_17>
    3203:	b7 07 00 00 00 00 00 00	r7 = 0x0
    3204:	bf 12 00 00 00 00 00 00	r2 = r1
    3205:	1d 18 04 00 00 00 00 00	if r8 == r1 goto +0x4 <LBB16_16>
    3206:	71 87 00 00 00 00 00 00	r7 = *(u8 *)(r8 + 0x0)
    3207:	07 08 00 00 01 00 00 00	r8 += 0x1
    3208:	57 07 00 00 3f 00 00 00	r7 &= 0x3f
    3209:	bf 82 00 00 00 00 00 00	r2 = r8

0000000000006450 <LBB16_16>:
    3210:	67 05 00 00 0c 00 00 00	r5 <<= 0xc
    3211:	67 03 00 00 12 00 00 00	r3 <<= 0x12
    3212:	57 03 00 00 00 00 1c 00	r3 &= 0x1c0000
    3213:	4f 35 00 00 00 00 00 00	r5 |= r3
    3214:	67 06 00 00 06 00 00 00	r6 <<= 0x6
    3215:	4f 65 00 00 00 00 00 00	r5 |= r6
    3216:	4f 75 00 00 00 00 00 00	r5 |= r7
    3217:	15 05 3f 00 00 00 11 00	if r5 == 0x110000 goto +0x3f <LBB16_39>

0000000000006490 <LBB16_17>:
    3218:	bf 23 00 00 00 00 00 00	r3 = r2
    3219:	1f 93 00 00 00 00 00 00	r3 -= r9
    3220:	0f 03 00 00 00 00 00 00	r3 += r0
    3221:	07 04 00 00 ff ff ff ff	r4 += -0x1
    3222:	55 04 ce ff 00 00 00 00	if r4 != 0x0 goto -0x32 <LBB16_6>

00000000000064b8 <LBB16_18>:
    3223:	1d 12 39 00 00 00 00 00	if r2 == r1 goto +0x39 <LBB16_39>
    3224:	71 24 00 00 00 00 00 00	r4 = *(u8 *)(r2 + 0x0)
    3225:	bf 45 00 00 00 00 00 00	r5 = r4
    3226:	67 05 00 00 38 00 00 00	r5 <<= 0x38
    3227:	c7 05 00 00 38 00 00 00	r5 s>>= 0x38
    3228:	65 05 20 00 ff ff ff ff	if r5 s> -0x1 goto +0x20 <LBB16_29>
    3229:	bf 26 00 00 00 00 00 00	r6 = r2
    3230:	07 06 00 00 01 00 00 00	r6 += 0x1
    3231:	b7 05 00 00 00 00 00 00	r5 = 0x0
    3232:	bf 10 00 00 00 00 00 00	r0 = r1
    3233:	1d 16 05 00 00 00 00 00	if r6 == r1 goto +0x5 <LBB16_22>
    3234:	71 25 01 00 00 00 00 00	r5 = *(u8 *)(r2 + 0x1)
    3235:	07 02 00 00 02 00 00 00	r2 += 0x2
    3236:	57 05 00 00 3f 00 00 00	r5 &= 0x3f
    3237:	67 05 00 00 06 00 00 00	r5 <<= 0x6
    3238:	bf 20 00 00 00 00 00 00	r0 = r2

0000000000006538 <LBB16_22>:
    3239:	b7 02 00 00 e0 00 00 00	r2 = 0xe0
    3240:	2d 42 14 00 00 00 00 00	if r2 > r4 goto +0x14 <LBB16_29>
    3241:	b7 02 00 00 00 00 00 00	r2 = 0x0
    3242:	bf 16 00 00 00 00 00 00	r6 = r1
    3243:	1d 10 04 00 00 00 00 00	if r0 == r1 goto +0x4 <LBB16_25>
    3244:	71 02 00 00 00 00 00 00	r2 = *(u8 *)(r0 + 0x0)
    3245:	07 00 00 00 01 00 00 00	r0 += 0x1
    3246:	57 02 00 00 3f 00 00 00	r2 &= 0x3f
    3247:	bf 06 00 00 00 00 00 00	r6 = r0

0000000000006580 <LBB16_25>:
    3248:	b7 00 00 00 f0 00 00 00	r0 = 0xf0
    3249:	2d 40 0b 00 00 00 00 00	if r0 > r4 goto +0xb <LBB16_29>
    3250:	4f 52 00 00 00 00 00 00	r2 |= r5
    3251:	b7 05 00 00 00 00 00 00	r5 = 0x0
    3252:	1d 16 02 00 00 00 00 00	if r6 == r1 goto +0x2 <LBB16_28>
    3253:	71 65 00 00 00 00 00 00	r5 = *(u8 *)(r6 + 0x0)
    3254:	57 05 00 00 3f 00 00 00	r5 &= 0x3f

00000000000065b8 <LBB16_28>:
    3255:	67 02 00 00 06 00 00 00	r2 <<= 0x6
    3256:	67 04 00 00 12 00 00 00	r4 <<= 0x12
    3257:	57 04 00 00 00 00 1c 00	r4 &= 0x1c0000
    3258:	4f 42 00 00 00 00 00 00	r2 |= r4
    3259:	4f 52 00 00 00 00 00 00	r2 |= r5
    3260:	15 02 14 00 00 00 11 00	if r2 == 0x110000 goto +0x14 <LBB16_39>

00000000000065e8 <LBB16_29>:
    3261:	79 a5 f0 ff 00 00 00 00	r5 = *(u64 *)(r10 - 0x10)
    3262:	79 a0 f8 ff 00 00 00 00	r0 = *(u64 *)(r10 - 0x8)
    3263:	15 03 0a 00 00 00 00 00	if r3 == 0x0 goto +0xa <LBB16_33>
    3264:	1d 53 09 00 00 00 00 00	if r3 == r5 goto +0x9 <LBB16_33>
    3265:	b7 01 00 00 00 00 00 00	r1 = 0x0
    3266:	3d 53 08 00 00 00 00 00	if r3 >= r5 goto +0x8 <LBB16_34>
    3267:	bf 02 00 00 00 00 00 00	r2 = r0
    3268:	0f 32 00 00 00 00 00 00	r2 += r3
    3269:	71 22 00 00 00 00 00 00	r2 = *(u8 *)(r2 + 0x0)
    3270:	67 02 00 00 38 00 00 00	r2 <<= 0x38
    3271:	c7 02 00 00 38 00 00 00	r2 s>>= 0x38
    3272:	b7 04 00 00 c0 ff ff ff	r4 = -0x40
    3273:	6d 24 01 00 00 00 00 00	if r4 s> r2 goto +0x1 <LBB16_34>

0000000000006650 <LBB16_33>:
    3274:	bf 01 00 00 00 00 00 00	r1 = r0

0000000000006658 <LBB16_34>:
    3275:	15 01 01 00 00 00 00 00	if r1 == 0x0 goto +0x1 <LBB16_36>
    3276:	bf 35 00 00 00 00 00 00	r5 = r3

0000000000006668 <LBB16_36>:
    3277:	7b 5a f0 ff 00 00 00 00	*(u64 *)(r10 - 0x10) = r5
    3278:	15 01 01 00 00 00 00 00	if r1 == 0x0 goto +0x1 <LBB16_38>
    3279:	bf 10 00 00 00 00 00 00	r0 = r1

0000000000006680 <LBB16_38>:
    3280:	7b 0a f8 ff 00 00 00 00	*(u64 *)(r10 - 0x8) = r0

0000000000006688 <LBB16_39>:
    3281:	79 a6 f0 ff 00 00 00 00	r6 = *(u64 *)(r10 - 0x10)
    3282:	79 a2 f8 ff 00 00 00 00	r2 = *(u64 *)(r10 - 0x8)
    3283:	79 a1 e8 ff 00 00 00 00	r1 = *(u64 *)(r10 - 0x18)
    3284:	79 a7 e0 ff 00 00 00 00	r7 = *(u64 *)(r10 - 0x20)
    3285:	15 01 01 00 01 00 00 00	if r1 == 0x1 goto +0x1 <LBB16_41>
    3286:	05 00 2b 00 00 00 00 00	goto +0x2b <LBB16_3>

00000000000066b8 <LBB16_41>:
    3287:	15 06 14 00 00 00 00 00	if r6 == 0x0 goto +0x14 <LBB16_49>
    3288:	b7 00 00 00 00 00 00 00	r0 = 0x0
    3289:	bf 61 00 00 00 00 00 00	r1 = r6
    3290:	bf 23 00 00 00 00 00 00	r3 = r2
    3291:	05 00 0a 00 00 00 00 00	goto +0xa <LBB16_43>

00000000000066e0 <LBB16_45>:
    3292:	0f 40 00 00 00 00 00 00	r0 += r4
    3293:	07 03 00 00 01 00 00 00	r3 += 0x1
    3294:	07 01 00 00 ff ff ff ff	r1 += -0x1
    3295:	55 01 06 00 00 00 00 00	if r1 != 0x0 goto +0x6 <LBB16_43>
    3296:	79 71 08 00 00 00 00 00	r1 = *(u64 *)(r7 + 0x8)
    3297:	3d 10 0d 00 00 00 00 00	if r0 >= r1 goto +0xd <LBB16_50>
    3298:	b7 08 00 00 00 00 00 00	r8 = 0x0
    3299:	bf 63 00 00 00 00 00 00	r3 = r6
    3300:	bf 24 00 00 00 00 00 00	r4 = r2
    3301:	05 00 15 00 00 00 00 00	goto +0x15 <LBB16_48>

0000000000006730 <LBB16_43>:
    3302:	71 35 00 00 00 00 00 00	r5 = *(u8 *)(r3 + 0x0)
    3303:	57 05 00 00 c0 00 00 00	r5 &= 0xc0
    3304:	b7 04 00 00 01 00 00 00	r4 = 0x1
    3305:	55 05 f2 ff 80 00 00 00	if r5 != 0x80 goto -0xe <LBB16_45>
    3306:	b7 04 00 00 00 00 00 00	r4 = 0x0
    3307:	05 00 f0 ff 00 00 00 00	goto -0x10 <LBB16_45>

0000000000006760 <LBB16_49>:
    3308:	b7 08 00 00 00 00 00 00	r8 = 0x0
    3309:	79 71 08 00 00 00 00 00	r1 = *(u64 *)(r7 + 0x8)
    3310:	55 01 05 00 00 00 00 00	if r1 != 0x0 goto +0x5 <LBB16_53>

0000000000006778 <LBB16_50>:
    3311:	05 00 12 00 00 00 00 00	goto +0x12 <LBB16_3>

0000000000006780 <LBB16_52>:
    3312:	0f 58 00 00 00 00 00 00	r8 += r5
    3313:	07 04 00 00 01 00 00 00	r4 += 0x1
    3314:	07 03 00 00 ff ff ff ff	r3 += -0x1
    3315:	55 03 07 00 00 00 00 00	if r3 != 0x0 goto +0x7 <LBB16_48>

00000000000067a0 <LBB16_53>:
    3316:	7b 2a f8 ff 00 00 00 00	*(u64 *)(r10 - 0x8) = r2
    3317:	71 74 38 00 00 00 00 00	r4 = *(u8 *)(r7 + 0x38)
    3318:	b7 09 00 00 00 00 00 00	r9 = 0x0
    3319:	b7 03 00 00 00 00 00 00	r3 = 0x0
    3320:	15 04 10 00 03 00 00 00	if r4 == 0x3 goto +0x10 <LBB16_55>
    3321:	bf 43 00 00 00 00 00 00	r3 = r4
    3322:	05 00 0e 00 00 00 00 00	goto +0xe <LBB16_55>

00000000000067d8 <LBB16_48>:
    3323:	71 40 00 00 00 00 00 00	r0 = *(u8 *)(r4 + 0x0)
    3324:	57 00 00 00 c0 00 00 00	r0 &= 0xc0
    3325:	b7 05 00 00 01 00 00 00	r5 = 0x1
    3326:	55 00 f1 ff 80 00 00 00	if r0 != 0x80 goto -0xf <LBB16_52>
    3327:	b7 05 00 00 00 00 00 00	r5 = 0x0
    3328:	05 00 ef ff 00 00 00 00	goto -0x11 <LBB16_52>

0000000000006808 <LBB16_2>:
    3329:	15 01 58 ff 01 00 00 00	if r1 == 0x1 goto -0xa8 <LBB16_4>

0000000000006810 <LBB16_3>:
    3330:	79 71 20 00 00 00 00 00	r1 = *(u64 *)(r7 + 0x20)
    3331:	79 73 28 00 00 00 00 00	r3 = *(u64 *)(r7 + 0x28)
    3332:	79 34 18 00 00 00 00 00	r4 = *(u64 *)(r3 + 0x18)
    3333:	bf 63 00 00 00 00 00 00	r3 = r6
    3334:	8d 00 00 00 04 00 00 00	callx r4

0000000000006838 <LBB16_68>:
    3335:	57 00 00 00 01 00 00 00	r0 &= 0x1
    3336:	95 00 00 00 00 00 00 00	exit

0000000000006848 <LBB16_55>:
    3337:	1f 81 00 00 00 00 00 00	r1 -= r8
    3338:	57 03 00 00 03 00 00 00	r3 &= 0x3
    3339:	bf 18 00 00 00 00 00 00	r8 = r1
    3340:	15 03 09 00 00 00 00 00	if r3 == 0x0 goto +0x9 <LBB16_59>
    3341:	15 03 06 00 01 00 00 00	if r3 == 0x1 goto +0x6 <LBB16_58>
    3342:	bf 19 00 00 00 00 00 00	r9 = r1
    3343:	77 09 00 00 01 00 00 00	r9 >>= 0x1
    3344:	07 01 00 00 01 00 00 00	r1 += 0x1
    3345:	77 01 00 00 01 00 00 00	r1 >>= 0x1
    3346:	bf 18 00 00 00 00 00 00	r8 = r1
    3347:	05 00 02 00 00 00 00 00	goto +0x2 <LBB16_59>

00000000000068a0 <LBB16_58>:
    3348:	b7 08 00 00 00 00 00 00	r8 = 0x0
    3349:	bf 19 00 00 00 00 00 00	r9 = r1

00000000000068b0 <LBB16_59>:
    3350:	07 09 00 00 01 00 00 00	r9 += 0x1

00000000000068b8 <LBB16_60>:
    3351:	07 09 00 00 ff ff ff ff	r9 += -0x1
    3352:	15 09 09 00 00 00 00 00	if r9 == 0x0 goto +0x9 <LBB16_62>
    3353:	61 72 34 00 00 00 00 00	r2 = *(u32 *)(r7 + 0x34)
    3354:	79 71 20 00 00 00 00 00	r1 = *(u64 *)(r7 + 0x20)
    3355:	79 73 28 00 00 00 00 00	r3 = *(u64 *)(r7 + 0x28)
    3356:	79 33 20 00 00 00 00 00	r3 = *(u64 *)(r3 + 0x20)
    3357:	8d 00 00 00 03 00 00 00	callx r3
    3358:	bf 01 00 00 00 00 00 00	r1 = r0
    3359:	b7 00 00 00 01 00 00 00	r0 = 0x1
    3360:	55 01 e6 ff 00 00 00 00	if r1 != 0x0 goto -0x1a <LBB16_68>
    3361:	05 00 f5 ff 00 00 00 00	goto -0xb <LBB16_60>

0000000000006910 <LBB16_62>:
    3362:	61 71 34 00 00 00 00 00	r1 = *(u32 *)(r7 + 0x34)
    3363:	7b 1a f0 ff 00 00 00 00	*(u64 *)(r10 - 0x10) = r1
    3364:	79 71 20 00 00 00 00 00	r1 = *(u64 *)(r7 + 0x20)
    3365:	79 72 28 00 00 00 00 00	r2 = *(u64 *)(r7 + 0x28)
    3366:	79 24 18 00 00 00 00 00	r4 = *(u64 *)(r2 + 0x18)
    3367:	79 a2 f8 ff 00 00 00 00	r2 = *(u64 *)(r10 - 0x8)
    3368:	bf 63 00 00 00 00 00 00	r3 = r6
    3369:	8d 00 00 00 04 00 00 00	callx r4
    3370:	bf 01 00 00 00 00 00 00	r1 = r0
    3371:	b7 00 00 00 01 00 00 00	r0 = 0x1
    3372:	55 01 da ff 00 00 00 00	if r1 != 0x0 goto -0x26 <LBB16_68>
    3373:	07 08 00 00 01 00 00 00	r8 += 0x1
    3374:	79 79 28 00 00 00 00 00	r9 = *(u64 *)(r7 + 0x28)
    3375:	79 76 20 00 00 00 00 00	r6 = *(u64 *)(r7 + 0x20)
    3376:	79 a7 f0 ff 00 00 00 00	r7 = *(u64 *)(r10 - 0x10)

0000000000006988 <LBB16_64>:
    3377:	07 08 00 00 ff ff ff ff	r8 += -0x1
    3378:	15 08 05 00 00 00 00 00	if r8 == 0x0 goto +0x5 <LBB16_66>
    3379:	79 93 20 00 00 00 00 00	r3 = *(u64 *)(r9 + 0x20)
    3380:	bf 61 00 00 00 00 00 00	r1 = r6
    3381:	bf 72 00 00 00 00 00 00	r2 = r7
    3382:	8d 00 00 00 03 00 00 00	callx r3
    3383:	15 00 f9 ff 00 00 00 00	if r0 == 0x0 goto -0x7 <LBB16_64>

00000000000069c0 <LBB16_66>:
    3384:	b7 00 00 00 01 00 00 00	r0 = 0x1
    3385:	55 08 cd ff 00 00 00 00	if r8 != 0x0 goto -0x33 <LBB16_68>
    3386:	b7 00 00 00 00 00 00 00	r0 = 0x0
    3387:	05 00 cb ff 00 00 00 00	goto -0x35 <LBB16_68>

00000000000069e0 <_$LT$char$u20$as$u20$core..fmt..Debug$GT$::fmt::h205c43429262e3ab>:
    3388:	bf 26 00 00 00 00 00 00	r6 = r2
    3389:	bf 17 00 00 00 00 00 00	r7 = r1
    3390:	79 61 20 00 00 00 00 00	r1 = *(u64 *)(r6 + 0x20)
    3391:	79 62 28 00 00 00 00 00	r2 = *(u64 *)(r6 + 0x28)
    3392:	79 23 20 00 00 00 00 00	r3 = *(u64 *)(r2 + 0x20)
    3393:	b7 02 00 00 27 00 00 00	r2 = 0x27
    3394:	8d 00 00 00 03 00 00 00	callx r3
    3395:	bf 01 00 00 00 00 00 00	r1 = r0
    3396:	b7 00 00 00 01 00 00 00	r0 = 0x1
    3397:	55 01 be 00 00 00 00 00	if r1 != 0x0 goto +0xbe <LBB43_49>
    3398:	b7 08 00 00 02 00 00 00	r8 = 0x2
    3399:	61 77 00 00 00 00 00 00	r7 = *(u32 *)(r7 + 0x0)
    3400:	65 07 07 00 21 00 00 00	if r7 s> 0x21 goto +0x7 <LBB43_5>
    3401:	b7 09 00 00 74 00 00 00	r9 = 0x74
    3402:	15 07 9b 00 09 00 00 00	if r7 == 0x9 goto +0x9b <LBB43_27>
    3403:	15 07 0a 00 0a 00 00 00	if r7 == 0xa goto +0xa <LBB43_10>
    3404:	15 07 01 00 0d 00 00 00	if r7 == 0xd goto +0x1 <LBB43_8>
    3405:	05 00 0a 00 00 00 00 00	goto +0xa <LBB43_12>

0000000000006a70 <LBB43_8>:
    3406:	b7 09 00 00 72 00 00 00	r9 = 0x72
    3407:	05 00 96 00 00 00 00 00	goto +0x96 <LBB43_27>

0000000000006a80 <LBB43_5>:
    3408:	15 07 03 00 22 00 00 00	if r7 == 0x22 goto +0x3 <LBB43_11>
    3409:	15 07 02 00 27 00 00 00	if r7 == 0x27 goto +0x2 <LBB43_11>
    3410:	15 07 01 00 5c 00 00 00	if r7 == 0x5c goto +0x1 <LBB43_11>
    3411:	05 00 04 00 00 00 00 00	goto +0x4 <LBB43_12>

0000000000006aa0 <LBB43_11>:
    3412:	bf 79 00 00 00 00 00 00	r9 = r7
    3413:	05 00 90 00 00 00 00 00	goto +0x90 <LBB43_27>

0000000000006ab0 <LBB43_10>:
    3414:	b7 09 00 00 6e 00 00 00	r9 = 0x6e
    3415:	05 00 8e 00 00 00 00 00	goto +0x8e <LBB43_27>

0000000000006ac0 <LBB43_12>:
    3416:	bf 71 00 00 00 00 00 00	r1 = r7
    3417:	85 10 00 00 fa fc ff ff	call -0x306
    3418:	15 00 01 00 00 00 00 00	if r0 == 0x0 goto +0x1 <LBB43_14>
    3419:	05 00 53 00 00 00 00 00	goto +0x53 <LBB43_26>

0000000000006ae0 <LBB43_14>:
    3420:	25 07 13 00 ff ff 00 00	if r7 > 0xffff goto +0x13 <LBB43_16>
    3421:	18 01 00 00 7f a0 00 00 00 00 00 00 00 00 00 00	r1 = 0xa07f ll
    3423:	7b 1a 08 f0 00 00 00 00	*(u64 *)(r10 - 0xff8) = r1
    3424:	b7 01 00 00 35 01 00 00	r1 = 0x135
    3425:	7b 1a 10 f0 00 00 00 00	*(u64 *)(r10 - 0xff0) = r1
    3426:	b7 01 00 00 22 01 00 00	r1 = 0x122
    3427:	7b 1a 00 f0 00 00 00 00	*(u64 *)(r10 - 0x1000) = r1
    3428:	bf a5 00 00 00 00 00 00	r5 = r10
    3429:	bf 71 00 00 00 00 00 00	r1 = r7
    3430:	18 02 00 00 0b 9f 00 00 00 00 00 00 00 00 00 00	r2 = 0x9f0b ll
    3432:	b7 03 00 00 29 00 00 00	r3 = 0x29
    3433:	18 04 00 00 5d 9f 00 00 00 00 00 00 00 00 00 00	r4 = 0x9f5d ll
    3435:	85 10 00 00 39 fb ff ff	call -0x4c7
    3436:	b7 08 00 00 01 00 00 00	r8 = 0x1
    3437:	bf 79 00 00 00 00 00 00	r9 = r7
    3438:	55 00 77 00 00 00 00 00	if r0 != 0x0 goto +0x77 <LBB43_27>
    3439:	05 00 3f 00 00 00 00 00	goto +0x3f <LBB43_26>

0000000000006b80 <LBB43_16>:
    3440:	b7 01 00 00 00 00 02 00	r1 = 0x20000
    3441:	2d 71 2b 00 00 00 00 00	if r1 > r7 goto +0x2b <LBB43_25>
    3442:	25 07 3c 00 ef 01 0e 00	if r7 > 0xe01ef goto +0x3c <LBB43_26>
    3443:	bf 71 00 00 00 00 00 00	r1 = r7
    3444:	07 01 00 00 b5 ec fc ff	r1 += -0x3134b
    3445:	67 01 00 00 20 00 00 00	r1 <<= 0x20
    3446:	77 01 00 00 20 00 00 00	r1 >>= 0x20
    3447:	b7 02 00 00 b5 ed 0a 00	r2 = 0xaedb5
    3448:	2d 12 36 00 00 00 00 00	if r2 > r1 goto +0x36 <LBB43_26>
    3449:	bf 71 00 00 00 00 00 00	r1 = r7
    3450:	07 01 00 00 e2 05 fd ff	r1 += -0x2fa1e
    3451:	67 01 00 00 20 00 00 00	r1 <<= 0x20
    3452:	77 01 00 00 20 00 00 00	r1 >>= 0x20
    3453:	b7 02 00 00 e2 05 00 00	r2 = 0x5e2
    3454:	2d 12 30 00 00 00 00 00	if r2 > r1 goto +0x30 <LBB43_26>
    3455:	bf 71 00 00 00 00 00 00	r1 = r7
    3456:	07 01 00 00 1f 14 fd ff	r1 += -0x2ebe1
    3457:	67 01 00 00 20 00 00 00	r1 <<= 0x20
    3458:	77 01 00 00 20 00 00 00	r1 >>= 0x20
    3459:	b7 02 00 00 1f 0c 00 00	r2 = 0xc1f
    3460:	2d 12 2a 00 00 00 00 00	if r2 > r1 goto +0x2a <LBB43_26>
    3461:	bf 71 00 00 00 00 00 00	r1 = r7
    3462:	07 01 00 00 5e 31 fd ff	r1 += -0x2cea2
    3463:	67 01 00 00 20 00 00 00	r1 <<= 0x20
    3464:	77 01 00 00 20 00 00 00	r1 >>= 0x20
    3465:	b7 02 00 00 0e 00 00 00	r2 = 0xe
    3466:	2d 12 24 00 00 00 00 00	if r2 > r1 goto +0x24 <LBB43_26>
    3467:	bf 71 00 00 00 00 00 00	r1 = r7
    3468:	57 01 00 00 fe ff 1f 00	r1 &= 0x1ffffe
    3469:	15 01 21 00 1e b8 02 00	if r1 == 0x2b81e goto +0x21 <LBB43_26>
    3470:	bf 71 00 00 00 00 00 00	r1 = r7
    3471:	07 01 00 00 22 59 fd ff	r1 += -0x2a6de
    3472:	67 01 00 00 20 00 00 00	r1 <<= 0x20
    3473:	77 01 00 00 20 00 00 00	r1 >>= 0x20
    3474:	b7 02 00 00 22 00 00 00	r2 = 0x22
    3475:	2d 12 1b 00 00 00 00 00	if r2 > r1 goto +0x1b <LBB43_26>
    3476:	b7 08 00 00 01 00 00 00	r8 = 0x1
    3477:	bf 71 00 00 00 00 00 00	r1 = r7
    3478:	07 01 00 00 cb 48 fd ff	r1 += -0x2b735
    3479:	67 01 00 00 20 00 00 00	r1 <<= 0x20
    3480:	77 01 00 00 20 00 00 00	r1 >>= 0x20
    3481:	b7 02 00 00 0b 00 00 00	r2 = 0xb
    3482:	bf 79 00 00 00 00 00 00	r9 = r7
    3483:	2d 12 13 00 00 00 00 00	if r2 > r1 goto +0x13 <LBB43_26>
    3484:	05 00 49 00 00 00 00 00	goto +0x49 <LBB43_27>

0000000000006ce8 <LBB43_25>:
    3485:	18 01 00 00 af a2 00 00 00 00 00 00 00 00 00 00	r1 = 0xa2af ll
    3487:	7b 1a 08 f0 00 00 00 00	*(u64 *)(r10 - 0xff8) = r1
    3488:	b7 01 00 00 a3 01 00 00	r1 = 0x1a3
    3489:	7b 1a 10 f0 00 00 00 00	*(u64 *)(r10 - 0xff0) = r1
    3490:	b7 01 00 00 af 00 00 00	r1 = 0xaf
    3491:	7b 1a 00 f0 00 00 00 00	*(u64 *)(r10 - 0x1000) = r1
    3492:	bf a5 00 00 00 00 00 00	r5 = r10
    3493:	bf 71 00 00 00 00 00 00	r1 = r7
    3494:	18 02 00 00 b4 a1 00 00 00 00 00 00 00 00 00 00	r2 = 0xa1b4 ll
    3496:	b7 03 00 00 26 00 00 00	r3 = 0x26
    3497:	18 04 00 00 00 a2 00 00 00 00 00 00 00 00 00 00	r4 = 0xa200 ll
    3499:	85 10 00 00 f9 fa ff ff	call -0x507
    3500:	b7 08 00 00 01 00 00 00	r8 = 0x1
    3501:	bf 79 00 00 00 00 00 00	r9 = r7
    3502:	55 00 37 00 00 00 00 00	if r0 != 0x0 goto +0x37 <LBB43_27>

0000000000006d78 <LBB43_26>:
    3503:	bf 71 00 00 00 00 00 00	r1 = r7
    3504:	47 01 00 00 01 00 00 00	r1 |= 0x1
    3505:	bf 12 00 00 00 00 00 00	r2 = r1
    3506:	77 02 00 00 01 00 00 00	r2 >>= 0x1
    3507:	4f 21 00 00 00 00 00 00	r1 |= r2
    3508:	bf 12 00 00 00 00 00 00	r2 = r1
    3509:	77 02 00 00 02 00 00 00	r2 >>= 0x2
    3510:	4f 21 00 00 00 00 00 00	r1 |= r2
    3511:	bf 12 00 00 00 00 00 00	r2 = r1
    3512:	77 02 00 00 04 00 00 00	r2 >>= 0x4
    3513:	4f 21 00 00 00 00 00 00	r1 |= r2
    3514:	18 02 00 00 00 00 00 00 00 00 00 00 05 00 00 00	r2 = 0x500000000 ll
    3516:	4f 27 00 00 00 00 00 00	r7 |= r2
    3517:	bf 12 00 00 00 00 00 00	r2 = r1
    3518:	77 02 00 00 08 00 00 00	r2 >>= 0x8
    3519:	4f 21 00 00 00 00 00 00	r1 |= r2
    3520:	bf 12 00 00 00 00 00 00	r2 = r1
    3521:	77 02 00 00 10 00 00 00	r2 >>= 0x10
    3522:	4f 21 00 00 00 00 00 00	r1 |= r2
    3523:	bf 12 00 00 00 00 00 00	r2 = r1
    3524:	77 02 00 00 20 00 00 00	r2 >>= 0x20
    3525:	4f 21 00 00 00 00 00 00	r1 |= r2
    3526:	a7 01 00 00 ff ff ff ff	r1 ^= -0x1
    3527:	18 02 00 00 55 55 55 55 00 00 00 00 55 55 55 55	r2 = 0x5555555555555555 ll
    3529:	bf 13 00 00 00 00 00 00	r3 = r1
    3530:	77 03 00 00 01 00 00 00	r3 >>= 0x1
    3531:	5f 23 00 00 00 00 00 00	r3 &= r2
    3532:	1f 31 00 00 00 00 00 00	r1 -= r3
    3533:	18 02 00 00 33 33 33 33 00 00 00 00 33 33 33 33	r2 = 0x3333333333333333 ll
    3535:	bf 13 00 00 00 00 00 00	r3 = r1
    3536:	5f 23 00 00 00 00 00 00	r3 &= r2
    3537:	77 01 00 00 02 00 00 00	r1 >>= 0x2
    3538:	5f 21 00 00 00 00 00 00	r1 &= r2
    3539:	0f 13 00 00 00 00 00 00	r3 += r1
    3540:	bf 31 00 00 00 00 00 00	r1 = r3
    3541:	77 01 00 00 04 00 00 00	r1 >>= 0x4
    3542:	0f 13 00 00 00 00 00 00	r3 += r1
    3543:	18 01 00 00 0f 0f 0f 0f 00 00 00 00 0f 0f 0f 0f	r1 = 0xf0f0f0f0f0f0f0f ll
    3545:	5f 13 00 00 00 00 00 00	r3 &= r1
    3546:	18 01 00 00 01 01 01 01 00 00 00 00 01 01 01 01	r1 = 0x101010101010101 ll
    3548:	2f 13 00 00 00 00 00 00	r3 *= r1
    3549:	77 03 00 00 38 00 00 00	r3 >>= 0x38
    3550:	07 03 00 00 e0 ff ff ff	r3 += -0x20
    3551:	18 01 00 00 fc ff ff ff 00 00 00 00 00 00 00 00	r1 = 0xfffffffc ll
    3553:	5f 13 00 00 00 00 00 00	r3 &= r1
    3554:	b7 08 00 00 03 00 00 00	r8 = 0x3
    3555:	77 03 00 00 02 00 00 00	r3 >>= 0x2
    3556:	a7 03 00 00 07 00 00 00	r3 ^= 0x7
    3557:	7b 3a f8 ff 00 00 00 00	*(u64 *)(r10 - 0x8) = r3

0000000000006f30 <LBB43_27>:
    3558:	67 08 00 00 20 00 00 00	r8 <<= 0x20
    3559:	bf 81 00 00 00 00 00 00	r1 = r8
    3560:	77 01 00 00 20 00 00 00	r1 >>= 0x20
    3561:	65 01 07 00 01 00 00 00	if r1 s> 0x1 goto +0x7 <LBB43_30>
    3562:	15 01 10 00 01 00 00 00	if r1 == 0x1 goto +0x10 <LBB43_46>

0000000000006f58 <LBB43_29>:
    3563:	79 61 20 00 00 00 00 00	r1 = *(u64 *)(r6 + 0x20)
    3564:	79 62 28 00 00 00 00 00	r2 = *(u64 *)(r6 + 0x28)
    3565:	79 23 20 00 00 00 00 00	r3 = *(u64 *)(r2 + 0x20)
    3566:	b7 02 00 00 27 00 00 00	r2 = 0x27
    3567:	8d 00 00 00 03 00 00 00	callx r3
    3568:	05 00 13 00 00 00 00 00	goto +0x13 <LBB43_49>

0000000000006f88 <LBB43_30>:
    3569:	b7 08 00 00 01 00 00 00	r8 = 0x1
    3570:	b7 02 00 00 5c 00 00 00	r2 = 0x5c
    3571:	15 01 09 00 02 00 00 00	if r1 == 0x2 goto +0x9 <LBB43_48>
    3572:	bf 71 00 00 00 00 00 00	r1 = r7
    3573:	77 01 00 00 20 00 00 00	r1 >>= 0x20
    3574:	57 01 00 00 ff 00 00 00	r1 &= 0xff
    3575:	65 01 0d 00 02 00 00 00	if r1 s> 0x2 goto +0xd <LBB43_35>
    3576:	15 01 14 00 01 00 00 00	if r1 == 0x1 goto +0x14 <LBB43_45>
    3577:	15 01 19 00 02 00 00 00	if r1 == 0x2 goto +0x19 <LBB43_40>
    3578:	05 00 f0 ff 00 00 00 00	goto -0x10 <LBB43_29>

0000000000006fd8 <LBB43_46>:
    3579:	b7 08 00 00 00 00 00 00	r8 = 0x0
    3580:	bf 92 00 00 00 00 00 00	r2 = r9

0000000000006fe8 <LBB43_48>:
    3581:	79 61 20 00 00 00 00 00	r1 = *(u64 *)(r6 + 0x20)
    3582:	79 63 28 00 00 00 00 00	r3 = *(u64 *)(r6 + 0x28)
    3583:	79 33 20 00 00 00 00 00	r3 = *(u64 *)(r3 + 0x20)
    3584:	8d 00 00 00 03 00 00 00	callx r3
    3585:	bf 01 00 00 00 00 00 00	r1 = r0
    3586:	b7 00 00 00 01 00 00 00	r0 = 0x1
    3587:	15 01 e2 ff 00 00 00 00	if r1 == 0x0 goto -0x1e <LBB43_27>

0000000000007020 <LBB43_49>:
    3588:	95 00 00 00 00 00 00 00	exit

0000000000007028 <LBB43_35>:
    3589:	15 01 24 00 03 00 00 00	if r1 == 0x3 goto +0x24 <LBB43_39>
    3590:	15 01 2c 00 04 00 00 00	if r1 == 0x4 goto +0x2c <LBB43_47>
    3591:	18 01 00 00 ff ff ff ff 00 00 00 00 00 ff ff ff	r1 = -0xff00000001 ll
    3593:	5f 17 00 00 00 00 00 00	r7 &= r1
    3594:	18 01 00 00 00 00 00 00 00 00 00 00 04 00 00 00	r1 = 0x400000000 ll
    3596:	05 00 1a 00 00 00 00 00	goto +0x1a <LBB43_38>

0000000000007068 <LBB43_45>:
    3597:	18 01 00 00 ff ff ff ff 00 00 00 00 00 ff ff ff	r1 = -0xff00000001 ll
    3599:	5f 17 00 00 00 00 00 00	r7 &= r1
    3600:	b7 08 00 00 03 00 00 00	r8 = 0x3
    3601:	b7 02 00 00 7d 00 00 00	r2 = 0x7d
    3602:	05 00 ea ff 00 00 00 00	goto -0x16 <LBB43_48>

0000000000007098 <LBB43_40>:
    3603:	79 a2 f8 ff 00 00 00 00	r2 = *(u64 *)(r10 - 0x8)
    3604:	67 02 00 00 02 00 00 00	r2 <<= 0x2
    3605:	57 02 00 00 1c 00 00 00	r2 &= 0x1c
    3606:	bf 71 00 00 00 00 00 00	r1 = r7
    3607:	67 01 00 00 20 00 00 00	r1 <<= 0x20
    3608:	77 01 00 00 20 00 00 00	r1 >>= 0x20
    3609:	7f 21 00 00 00 00 00 00	r1 >>= r2
    3610:	57 01 00 00 0f 00 00 00	r1 &= 0xf
    3611:	b7 02 00 00 30 00 00 00	r2 = 0x30
    3612:	b7 03 00 00 0a 00 00 00	r3 = 0xa
    3613:	2d 13 01 00 00 00 00 00	if r3 > r1 goto +0x1 <LBB43_42>
    3614:	b7 02 00 00 57 00 00 00	r2 = 0x57

00000000000070f8 <LBB43_42>:
    3615:	0f 12 00 00 00 00 00 00	r2 += r1
    3616:	79 a1 f8 ff 00 00 00 00	r1 = *(u64 *)(r10 - 0x8)
    3617:	55 01 1a 00 00 00 00 00	if r1 != 0x0 goto +0x1a <LBB43_44>
    3618:	18 01 00 00 ff ff ff ff 00 00 00 00 00 ff ff ff	r1 = -0xff00000001 ll
    3620:	5f 17 00 00 00 00 00 00	r7 &= r1
    3621:	18 01 00 00 00 00 00 00 00 00 00 00 01 00 00 00	r1 = 0x100000000 ll

0000000000007138 <LBB43_38>:
    3623:	4f 17 00 00 00 00 00 00	r7 |= r1
    3624:	b7 08 00 00 03 00 00 00	r8 = 0x3
    3625:	05 00 d3 ff 00 00 00 00	goto -0x2d <LBB43_48>

0000000000007150 <LBB43_39>:
    3626:	18 01 00 00 ff ff ff ff 00 00 00 00 00 ff ff ff	r1 = -0xff00000001 ll
    3628:	5f 17 00 00 00 00 00 00	r7 &= r1
    3629:	18 01 00 00 00 00 00 00 00 00 00 00 02 00 00 00	r1 = 0x200000000 ll
    3631:	4f 17 00 00 00 00 00 00	r7 |= r1
    3632:	b7 08 00 00 03 00 00 00	r8 = 0x3
    3633:	b7 02 00 00 7b 00 00 00	r2 = 0x7b
    3634:	05 00 ca ff 00 00 00 00	goto -0x36 <LBB43_48>

0000000000007198 <LBB43_47>:
    3635:	18 01 00 00 ff ff ff ff 00 00 00 00 00 ff ff ff	r1 = -0xff00000001 ll
    3637:	5f 17 00 00 00 00 00 00	r7 &= r1
    3638:	18 01 00 00 00 00 00 00 00 00 00 00 03 00 00 00	r1 = 0x300000000 ll
    3640:	4f 17 00 00 00 00 00 00	r7 |= r1
    3641:	b7 08 00 00 03 00 00 00	r8 = 0x3
    3642:	b7 02 00 00 75 00 00 00	r2 = 0x75
    3643:	05 00 c1 ff 00 00 00 00	goto -0x3f <LBB43_48>

00000000000071e0 <LBB43_44>:
    3644:	b7 08 00 00 03 00 00 00	r8 = 0x3
    3645:	07 01 00 00 ff ff ff ff	r1 += -0x1
    3646:	7b 1a f8 ff 00 00 00 00	*(u64 *)(r10 - 0x8) = r1
    3647:	05 00 bd ff 00 00 00 00	goto -0x43 <LBB43_48>

0000000000007200 <_$LT$core..fmt..Error$u20$as$u20$core..fmt..Debug$GT$::fmt::hd90c0be0d310f298>:
    3648:	79 21 20 00 00 00 00 00	r1 = *(u64 *)(r2 + 0x20)
    3649:	79 22 28 00 00 00 00 00	r2 = *(u64 *)(r2 + 0x28)
    3650:	79 24 18 00 00 00 00 00	r4 = *(u64 *)(r2 + 0x18)
    3651:	18 02 00 00 5f a8 00 00 00 00 00 00 00 00 00 00	r2 = 0xa85f ll
    3653:	b7 03 00 00 05 00 00 00	r3 = 0x5
    3654:	8d 00 00 00 04 00 00 00	callx r4
    3655:	95 00 00 00 00 00 00 00	exit

0000000000007240 <_$LT$$RF$T$u20$as$u20$core..fmt..Debug$GT$::fmt::h34fce55b10188a60>:
    3656:	79 13 00 00 00 00 00 00	r3 = *(u64 *)(r1 + 0x0)
    3657:	79 11 08 00 00 00 00 00	r1 = *(u64 *)(r1 + 0x8)
    3658:	79 14 18 00 00 00 00 00	r4 = *(u64 *)(r1 + 0x18)
    3659:	bf 31 00 00 00 00 00 00	r1 = r3
    3660:	8d 00 00 00 04 00 00 00	callx r4
    3661:	95 00 00 00 00 00 00 00	exit

0000000000007270 <_$LT$$RF$T$u20$as$u20$core..fmt..Debug$GT$::fmt::hebd97f13f40ed2b0>:
    3662:	bf 21 00 00 00 00 00 00	r1 = r2
    3663:	18 02 00 00 5d a8 00 00 00 00 00 00 00 00 00 00	r2 = 0xa85d ll
    3665:	b7 03 00 00 02 00 00 00	r3 = 0x2
    3666:	85 10 00 00 00 fe ff ff	call -0x200
    3667:	95 00 00 00 00 00 00 00	exit

00000000000072a0 <_$LT$$RF$T$u20$as$u20$core..fmt..Display$GT$::fmt::h311b637fe39ac718>:
    3668:	79 24 28 00 00 00 00 00	r4 = *(u64 *)(r2 + 0x28)
    3669:	79 22 20 00 00 00 00 00	r2 = *(u64 *)(r2 + 0x20)
    3670:	79 11 00 00 00 00 00 00	r1 = *(u64 *)(r1 + 0x0)
    3671:	79 13 28 00 00 00 00 00	r3 = *(u64 *)(r1 + 0x28)
    3672:	7b 3a f8 ff 00 00 00 00	*(u64 *)(r10 - 0x8) = r3
    3673:	79 13 20 00 00 00 00 00	r3 = *(u64 *)(r1 + 0x20)
    3674:	7b 3a f0 ff 00 00 00 00	*(u64 *)(r10 - 0x10) = r3
    3675:	79 13 18 00 00 00 00 00	r3 = *(u64 *)(r1 + 0x18)
    3676:	7b 3a e8 ff 00 00 00 00	*(u64 *)(r10 - 0x18) = r3
    3677:	79 13 10 00 00 00 00 00	r3 = *(u64 *)(r1 + 0x10)
    3678:	7b 3a e0 ff 00 00 00 00	*(u64 *)(r10 - 0x20) = r3
    3679:	79 13 08 00 00 00 00 00	r3 = *(u64 *)(r1 + 0x8)
    3680:	7b 3a d8 ff 00 00 00 00	*(u64 *)(r10 - 0x28) = r3
    3681:	79 11 00 00 00 00 00 00	r1 = *(u64 *)(r1 + 0x0)
    3682:	7b 1a d0 ff 00 00 00 00	*(u64 *)(r10 - 0x30) = r1
    3683:	bf a3 00 00 00 00 00 00	r3 = r10
    3684:	07 03 00 00 d0 ff ff ff	r3 += -0x30
    3685:	bf 21 00 00 00 00 00 00	r1 = r2
    3686:	bf 42 00 00 00 00 00 00	r2 = r4
    3687:	85 10 00 00 5c fc ff ff	call -0x3a4
    3688:	95 00 00 00 00 00 00 00	exit

0000000000007348 <_$LT$$RF$T$u20$as$u20$core..fmt..Display$GT$::fmt::hb8d4eda90d49b1a4>:
    3689:	bf 24 00 00 00 00 00 00	r4 = r2
    3690:	79 11 00 00 00 00 00 00	r1 = *(u64 *)(r1 + 0x0)
    3691:	79 13 08 00 00 00 00 00	r3 = *(u64 *)(r1 + 0x8)
    3692:	79 12 00 00 00 00 00 00	r2 = *(u64 *)(r1 + 0x0)
    3693:	bf 41 00 00 00 00 00 00	r1 = r4
    3694:	85 10 00 00 e4 fd ff ff	call -0x21c
    3695:	95 00 00 00 00 00 00 00	exit

0000000000007380 <_$LT$$RF$T$u20$as$u20$core..fmt..Display$GT$::fmt::hcfc13c942b763c34>:
    3696:	bf 24 00 00 00 00 00 00	r4 = r2
    3697:	79 13 08 00 00 00 00 00	r3 = *(u64 *)(r1 + 0x8)
    3698:	79 12 00 00 00 00 00 00	r2 = *(u64 *)(r1 + 0x0)
    3699:	bf 41 00 00 00 00 00 00	r1 = r4
    3700:	85 10 00 00 de fd ff ff	call -0x222
    3701:	95 00 00 00 00 00 00 00	exit

00000000000073b0 <core::ptr::drop_in_place$LT$$RF$char$GT$::haeb32e40c357515d (.llvm.3168516473605699219)>:
    3702:	95 00 00 00 00 00 00 00	exit

00000000000073b8 <_$LT$core..fmt..builders..PadAdapter$u20$as$u20$core..fmt..Write$GT$::write_str::hf20e2a11f8804f92>:
    3703:	bf 36 00 00 00 00 00 00	r6 = r3
    3704:	bf 27 00 00 00 00 00 00	r7 = r2
    3705:	bf 18 00 00 00 00 00 00	r8 = r1
    3706:	b7 00 00 00 00 00 00 00	r0 = 0x0
    3707:	15 06 22 00 00 00 00 00	if r6 == 0x0 goto +0x22 <LBB9_43>
    3708:	7b 8a e8 ff 00 00 00 00	*(u64 *)(r10 - 0x18) = r8
    3709:	05 00 21 00 00 00 00 00	goto +0x21 <LBB9_2>

00000000000073f0 <LBB9_33>:
    3710:	79 81 10 00 00 00 00 00	r1 = *(u64 *)(r8 + 0x10)
    3711:	73 51 00 00 00 00 00 00	*(u8 *)(r1 + 0x0) = r5
    3712:	79 82 08 00 00 00 00 00	r2 = *(u64 *)(r8 + 0x8)
    3713:	79 81 00 00 00 00 00 00	r1 = *(u64 *)(r8 + 0x0)
    3714:	15 09 10 00 00 00 00 00	if r9 == 0x0 goto +0x10 <LBB9_38>
    3715:	1d 96 0f 00 00 00 00 00	if r6 == r9 goto +0xf <LBB9_38>
    3716:	3d 69 06 00 00 00 00 00	if r9 >= r6 goto +0x6 <LBB9_37>
    3717:	bf 73 00 00 00 00 00 00	r3 = r7
    3718:	0f 93 00 00 00 00 00 00	r3 += r9
    3719:	71 33 00 00 00 00 00 00	r3 = *(u8 *)(r3 + 0x0)
    3720:	67 03 00 00 38 00 00 00	r3 <<= 0x38
    3721:	c7 03 00 00 38 00 00 00	r3 s>>= 0x38
    3722:	65 03 9a 00 bf ff ff ff	if r3 s> -0x41 goto +0x9a <LBB9_39>

0000000000007458 <LBB9_37>:
    3723:	bf 71 00 00 00 00 00 00	r1 = r7
    3724:	bf 62 00 00 00 00 00 00	r2 = r6
    3725:	b7 03 00 00 00 00 00 00	r3 = 0x0
    3726:	bf 94 00 00 00 00 00 00	r4 = r9
    3727:	18 05 00 00 20 ad 00 00 00 00 00 00 00 00 00 00	r5 = 0xad20 ll
    3729:	85 10 00 00 c7 fa ff ff	call -0x539
    3730:	85 10 00 00 ff ff ff ff	call -0x1

0000000000007498 <LBB9_38>:
    3731:	79 24 18 00 00 00 00 00	r4 = *(u64 *)(r2 + 0x18)
    3732:	bf 72 00 00 00 00 00 00	r2 = r7
    3733:	bf 93 00 00 00 00 00 00	r3 = r9
    3734:	8d 00 00 00 04 00 00 00	callx r4
    3735:	bf 01 00 00 00 00 00 00	r1 = r0
    3736:	b7 00 00 00 01 00 00 00	r0 = 0x1
    3737:	55 01 04 00 00 00 00 00	if r1 != 0x0 goto +0x4 <LBB9_43>

00000000000074d0 <LBB9_42>:
    3738:	0f 97 00 00 00 00 00 00	r7 += r9
    3739:	1f 96 00 00 00 00 00 00	r6 -= r9
    3740:	b7 00 00 00 00 00 00 00	r0 = 0x0
    3741:	55 06 01 00 00 00 00 00	if r6 != 0x0 goto +0x1 <LBB9_2>

00000000000074f0 <LBB9_43>:
    3742:	95 00 00 00 00 00 00 00	exit

00000000000074f8 <LBB9_2>:
    3743:	79 81 10 00 00 00 00 00	r1 = *(u64 *)(r8 + 0x10)
    3744:	71 11 00 00 00 00 00 00	r1 = *(u8 *)(r1 + 0x0)
    3745:	15 01 0a 00 00 00 00 00	if r1 == 0x0 goto +0xa <LBB9_4>
    3746:	79 81 00 00 00 00 00 00	r1 = *(u64 *)(r8 + 0x0)
    3747:	79 82 08 00 00 00 00 00	r2 = *(u64 *)(r8 + 0x8)
    3748:	79 24 18 00 00 00 00 00	r4 = *(u64 *)(r2 + 0x18)
    3749:	18 02 00 00 d9 a4 00 00 00 00 00 00 00 00 00 00	r2 = 0xa4d9 ll
    3751:	b7 03 00 00 04 00 00 00	r3 = 0x4
    3752:	8d 00 00 00 04 00 00 00	callx r4
    3753:	bf 01 00 00 00 00 00 00	r1 = r0
    3754:	b7 00 00 00 01 00 00 00	r0 = 0x1
    3755:	55 01 f2 ff 00 00 00 00	if r1 != 0x0 goto -0xe <LBB9_43>

0000000000007560 <LBB9_4>:
    3756:	b7 03 00 00 00 00 00 00	r3 = 0x0
    3757:	bf 62 00 00 00 00 00 00	r2 = r6
    3758:	05 00 10 00 00 00 00 00	goto +0x10 <LBB9_5>

0000000000007578 <LBB9_29>:
    3759:	0f 43 00 00 00 00 00 00	r3 += r4
    3760:	bf 31 00 00 00 00 00 00	r1 = r3
    3761:	07 01 00 00 01 00 00 00	r1 += 0x1
    3762:	3d 63 06 00 00 00 00 00	if r3 >= r6 goto +0x6 <LBB9_31>
    3763:	bf 72 00 00 00 00 00 00	r2 = r7
    3764:	0f 32 00 00 00 00 00 00	r2 += r3
    3765:	b7 05 00 00 01 00 00 00	r5 = 0x1
    3766:	71 22 00 00 00 00 00 00	r2 = *(u8 *)(r2 + 0x0)
    3767:	bf 19 00 00 00 00 00 00	r9 = r1
    3768:	15 02 c5 ff 0a 00 00 00	if r2 == 0xa goto -0x3b <LBB9_33>

00000000000075c8 <LBB9_31>:
    3769:	b7 05 00 00 00 00 00 00	r5 = 0x0
    3770:	bf 69 00 00 00 00 00 00	r9 = r6
    3771:	2d 61 c2 ff 00 00 00 00	if r1 > r6 goto -0x3e <LBB9_33>
    3772:	bf 62 00 00 00 00 00 00	r2 = r6
    3773:	1f 12 00 00 00 00 00 00	r2 -= r1
    3774:	bf 13 00 00 00 00 00 00	r3 = r1

00000000000075f8 <LBB9_5>:
    3775:	25 02 10 00 0f 00 00 00	if r2 > 0xf goto +0x10 <LBB9_11>
    3776:	b7 05 00 00 00 00 00 00	r5 = 0x0
    3777:	bf 69 00 00 00 00 00 00	r9 = r6
    3778:	15 02 bb ff 00 00 00 00	if r2 == 0x0 goto -0x45 <LBB9_33>
    3779:	bf 71 00 00 00 00 00 00	r1 = r7
    3780:	0f 31 00 00 00 00 00 00	r1 += r3
    3781:	b7 04 00 00 00 00 00 00	r4 = 0x0
    3782:	05 00 04 00 00 00 00 00	goto +0x4 <LBB9_8>

0000000000007638 <LBB9_10>:
    3783:	b7 05 00 00 00 00 00 00	r5 = 0x0
    3784:	07 04 00 00 01 00 00 00	r4 += 0x1
    3785:	bf 69 00 00 00 00 00 00	r9 = r6
    3786:	1d 42 b3 ff 00 00 00 00	if r2 == r4 goto -0x4d <LBB9_33>

0000000000007658 <LBB9_8>:
    3787:	bf 15 00 00 00 00 00 00	r5 = r1
    3788:	0f 45 00 00 00 00 00 00	r5 += r4
    3789:	71 55 00 00 00 00 00 00	r5 = *(u8 *)(r5 + 0x0)
    3790:	55 05 f8 ff 0a 00 00 00	if r5 != 0xa goto -0x8 <LBB9_10>
    3791:	05 00 df ff 00 00 00 00	goto -0x21 <LBB9_29>

0000000000007680 <LBB9_11>:
    3792:	bf 71 00 00 00 00 00 00	r1 = r7
    3793:	0f 31 00 00 00 00 00 00	r1 += r3
    3794:	bf 14 00 00 00 00 00 00	r4 = r1
    3795:	07 04 00 00 07 00 00 00	r4 += 0x7
    3796:	57 04 00 00 f8 ff ff ff	r4 &= -0x8
    3797:	1f 14 00 00 00 00 00 00	r4 -= r1
    3798:	15 04 47 00 00 00 00 00	if r4 == 0x0 goto +0x47 <LBB9_17>
    3799:	bf 21 00 00 00 00 00 00	r1 = r2
    3800:	2d 24 01 00 00 00 00 00	if r4 > r2 goto +0x1 <LBB9_14>
    3801:	bf 41 00 00 00 00 00 00	r1 = r4

00000000000076d0 <LBB9_14>:
    3802:	bf 75 00 00 00 00 00 00	r5 = r7
    3803:	0f 35 00 00 00 00 00 00	r5 += r3
    3804:	b7 04 00 00 00 00 00 00	r4 = 0x0

00000000000076e8 <LBB9_15>:
    3805:	bf 50 00 00 00 00 00 00	r0 = r5
    3806:	0f 40 00 00 00 00 00 00	r0 += r4
    3807:	71 00 00 00 00 00 00 00	r0 = *(u8 *)(r0 + 0x0)
    3808:	15 00 ce ff 0a 00 00 00	if r0 == 0xa goto -0x32 <LBB9_29>
    3809:	07 04 00 00 01 00 00 00	r4 += 0x1
    3810:	1d 41 01 00 00 00 00 00	if r1 == r4 goto +0x1 <LBB9_18>
    3811:	05 00 f9 ff 00 00 00 00	goto -0x7 <LBB9_15>

0000000000007720 <LBB9_18>:
    3812:	bf 24 00 00 00 00 00 00	r4 = r2
    3813:	07 04 00 00 f0 ff ff ff	r4 += -0x10
    3814:	2d 41 25 00 00 00 00 00	if r1 > r4 goto +0x25 <LBB9_24>

0000000000007738 <LBB9_19>:
    3815:	7b 7a f8 ff 00 00 00 00	*(u64 *)(r10 - 0x8) = r7
    3816:	bf 75 00 00 00 00 00 00	r5 = r7
    3817:	7b 3a f0 ff 00 00 00 00	*(u64 *)(r10 - 0x10) = r3
    3818:	0f 35 00 00 00 00 00 00	r5 += r3

0000000000007758 <LBB9_20>:
    3819:	bf 50 00 00 00 00 00 00	r0 = r5
    3820:	0f 10 00 00 00 00 00 00	r0 += r1
    3821:	79 08 00 00 00 00 00 00	r8 = *(u64 *)(r0 + 0x0)
    3822:	bf 89 00 00 00 00 00 00	r9 = r8
    3823:	18 07 00 00 0a 0a 0a 0a 00 00 00 00 0a 0a 0a 0a	r7 = 0xa0a0a0a0a0a0a0a ll
    3825:	af 79 00 00 00 00 00 00	r9 ^= r7
    3826:	18 03 00 00 ff fe fe fe 00 00 00 00 fe fe fe fe	r3 = -0x101010101010101 ll
    3828:	0f 39 00 00 00 00 00 00	r9 += r3
    3829:	a7 08 00 00 ff ff ff ff	r8 ^= -0x1
    3830:	5f 98 00 00 00 00 00 00	r8 &= r9
    3831:	79 00 08 00 00 00 00 00	r0 = *(u64 *)(r0 + 0x8)
    3832:	bf 09 00 00 00 00 00 00	r9 = r0
    3833:	af 79 00 00 00 00 00 00	r9 ^= r7
    3834:	0f 39 00 00 00 00 00 00	r9 += r3
    3835:	a7 00 00 00 ff ff ff ff	r0 ^= -0x1
    3836:	5f 90 00 00 00 00 00 00	r0 &= r9
    3837:	4f 80 00 00 00 00 00 00	r0 |= r8
    3838:	18 03 00 00 80 80 80 80 00 00 00 00 80 80 80 80	r3 = -0x7f7f7f7f7f7f7f80 ll
    3840:	5f 30 00 00 00 00 00 00	r0 &= r3
    3841:	55 00 02 00 00 00 00 00	if r0 != 0x0 goto +0x2 <LBB9_22>
    3842:	07 01 00 00 10 00 00 00	r1 += 0x10
    3843:	3d 14 e7 ff 00 00 00 00	if r4 >= r1 goto -0x19 <LBB9_20>

0000000000007820 <LBB9_22>:
    3844:	79 a8 e8 ff 00 00 00 00	r8 = *(u64 *)(r10 - 0x18)
    3845:	79 a7 f8 ff 00 00 00 00	r7 = *(u64 *)(r10 - 0x8)
    3846:	79 a3 f0 ff 00 00 00 00	r3 = *(u64 *)(r10 - 0x10)
    3847:	3d 12 04 00 00 00 00 00	if r2 >= r1 goto +0x4 <LBB9_24>
    3848:	18 03 00 00 b0 ab 00 00 00 00 00 00 00 00 00 00	r3 = 0xabb0 ll
    3850:	85 10 00 00 9a 01 00 00	call 0x19a
    3851:	85 10 00 00 ff ff ff ff	call -0x1

0000000000007860 <LBB9_24>:
    3852:	b7 05 00 00 00 00 00 00	r5 = 0x0
    3853:	bf 69 00 00 00 00 00 00	r9 = r6
    3854:	1d 21 6f ff 00 00 00 00	if r1 == r2 goto -0x91 <LBB9_33>
    3855:	1f 12 00 00 00 00 00 00	r2 -= r1
    3856:	bf 14 00 00 00 00 00 00	r4 = r1
    3857:	0f 34 00 00 00 00 00 00	r4 += r3
    3858:	bf 70 00 00 00 00 00 00	r0 = r7
    3859:	0f 40 00 00 00 00 00 00	r0 += r4
    3860:	b7 04 00 00 00 00 00 00	r4 = 0x0

00000000000078a8 <LBB9_26>:
    3861:	bf 05 00 00 00 00 00 00	r5 = r0
    3862:	0f 45 00 00 00 00 00 00	r5 += r4
    3863:	71 55 00 00 00 00 00 00	r5 = *(u8 *)(r5 + 0x0)
    3864:	15 05 09 00 0a 00 00 00	if r5 == 0xa goto +0x9 <LBB9_28>
    3865:	b7 05 00 00 00 00 00 00	r5 = 0x0
    3866:	07 04 00 00 01 00 00 00	r4 += 0x1
    3867:	bf 69 00 00 00 00 00 00	r9 = r6
    3868:	1d 42 61 ff 00 00 00 00	if r2 == r4 goto -0x9f <LBB9_33>
    3869:	05 00 f7 ff 00 00 00 00	goto -0x9 <LBB9_26>

00000000000078f0 <LBB9_17>:
    3870:	b7 01 00 00 00 00 00 00	r1 = 0x0
    3871:	bf 24 00 00 00 00 00 00	r4 = r2
    3872:	07 04 00 00 f0 ff ff ff	r4 += -0x10
    3873:	05 00 c5 ff 00 00 00 00	goto -0x3b <LBB9_19>

0000000000007910 <LBB9_28>:
    3874:	0f 41 00 00 00 00 00 00	r1 += r4
    3875:	bf 14 00 00 00 00 00 00	r4 = r1
    3876:	05 00 8a ff 00 00 00 00	goto -0x76 <LBB9_29>

0000000000007928 <LBB9_39>:
    3877:	79 24 18 00 00 00 00 00	r4 = *(u64 *)(r2 + 0x18)
    3878:	bf 72 00 00 00 00 00 00	r2 = r7
    3879:	bf 93 00 00 00 00 00 00	r3 = r9
    3880:	8d 00 00 00 04 00 00 00	callx r4
    3881:	bf 01 00 00 00 00 00 00	r1 = r0
    3882:	b7 00 00 00 01 00 00 00	r0 = 0x1
    3883:	55 01 72 ff 00 00 00 00	if r1 != 0x0 goto -0x8e <LBB9_43>
    3884:	bf 71 00 00 00 00 00 00	r1 = r7
    3885:	0f 91 00 00 00 00 00 00	r1 += r9
    3886:	71 11 00 00 00 00 00 00	r1 = *(u8 *)(r1 + 0x0)
    3887:	67 01 00 00 38 00 00 00	r1 <<= 0x38
    3888:	c7 01 00 00 38 00 00 00	r1 s>>= 0x38
    3889:	65 01 68 ff bf ff ff ff	if r1 s> -0x41 goto -0x98 <LBB9_42>
    3890:	bf 71 00 00 00 00 00 00	r1 = r7
    3891:	bf 62 00 00 00 00 00 00	r2 = r6
    3892:	bf 93 00 00 00 00 00 00	r3 = r9
    3893:	bf 64 00 00 00 00 00 00	r4 = r6
    3894:	18 05 00 00 38 ad 00 00 00 00 00 00 00 00 00 00	r5 = 0xad38 ll
    3896:	85 10 00 00 20 fa ff ff	call -0x5e0
    3897:	85 10 00 00 ff ff ff ff	call -0x1

00000000000079d0 <core::fmt::builders::DebugStruct::field::h356974481666e92d>:
    3898:	bf 27 00 00 00 00 00 00	r7 = r2
    3899:	bf 16 00 00 00 00 00 00	r6 = r1
    3900:	b7 02 00 00 01 00 00 00	r2 = 0x1
    3901:	71 61 08 00 00 00 00 00	r1 = *(u8 *)(r6 + 0x8)
    3902:	b7 08 00 00 01 00 00 00	r8 = 0x1
    3903:	55 01 7d 00 00 00 00 00	if r1 != 0x0 goto +0x7d <LBB11_18>
    3904:	7b 3a 98 ff 00 00 00 00	*(u64 *)(r10 - 0x68) = r3
    3905:	7b 5a 90 ff 00 00 00 00	*(u64 *)(r10 - 0x70) = r5
    3906:	71 62 09 00 00 00 00 00	r2 = *(u8 *)(r6 + 0x9)
    3907:	79 69 00 00 00 00 00 00	r9 = *(u64 *)(r6 + 0x0)
    3908:	61 91 30 00 00 00 00 00	r1 = *(u32 *)(r9 + 0x30)
    3909:	bf 13 00 00 00 00 00 00	r3 = r1
    3910:	57 03 00 00 04 00 00 00	r3 &= 0x4
    3911:	7b 4a 88 ff 00 00 00 00	*(u64 *)(r10 - 0x78) = r4
    3912:	15 03 48 00 00 00 00 00	if r3 == 0x0 goto +0x48 <LBB11_3>
    3913:	15 02 01 00 00 00 00 00	if r2 == 0x0 goto +0x1 <LBB11_8>
    3914:	05 00 0c 00 00 00 00 00	goto +0xc <LBB11_10>

0000000000007a58 <LBB11_8>:
    3915:	79 91 20 00 00 00 00 00	r1 = *(u64 *)(r9 + 0x20)
    3916:	79 92 28 00 00 00 00 00	r2 = *(u64 *)(r9 + 0x28)
    3917:	79 24 18 00 00 00 00 00	r4 = *(u64 *)(r2 + 0x18)
    3918:	18 02 00 00 77 a8 00 00 00 00 00 00 00 00 00 00	r2 = 0xa877 ll
    3920:	b7 03 00 00 03 00 00 00	r3 = 0x3
    3921:	8d 00 00 00 04 00 00 00	callx r4
    3922:	b7 08 00 00 01 00 00 00	r8 = 0x1
    3923:	b7 02 00 00 01 00 00 00	r2 = 0x1
    3924:	55 00 68 00 00 00 00 00	if r0 != 0x0 goto +0x68 <LBB11_18>
    3925:	79 69 00 00 00 00 00 00	r9 = *(u64 *)(r6 + 0x0)
    3926:	61 91 30 00 00 00 00 00	r1 = *(u32 *)(r9 + 0x30)

0000000000007ab8 <LBB11_10>:
    3927:	b7 08 00 00 01 00 00 00	r8 = 0x1
    3928:	73 8a bf ff 00 00 00 00	*(u8 *)(r10 - 0x41) = r8
    3929:	79 92 20 00 00 00 00 00	r2 = *(u64 *)(r9 + 0x20)
    3930:	79 93 28 00 00 00 00 00	r3 = *(u64 *)(r9 + 0x28)
    3931:	bf a5 00 00 00 00 00 00	r5 = r10
    3932:	07 05 00 00 bf ff ff ff	r5 += -0x41
    3933:	7b 5a b0 ff 00 00 00 00	*(u64 *)(r10 - 0x50) = r5
    3934:	7b 3a a8 ff 00 00 00 00	*(u64 *)(r10 - 0x58) = r3
    3935:	7b 2a a0 ff 00 00 00 00	*(u64 *)(r10 - 0x60) = r2
    3936:	79 92 00 00 00 00 00 00	r2 = *(u64 *)(r9 + 0x0)
    3937:	7b 2a 80 ff 00 00 00 00	*(u64 *)(r10 - 0x80) = r2
    3938:	79 93 08 00 00 00 00 00	r3 = *(u64 *)(r9 + 0x8)
    3939:	79 95 10 00 00 00 00 00	r5 = *(u64 *)(r9 + 0x10)
    3940:	79 90 18 00 00 00 00 00	r0 = *(u64 *)(r9 + 0x18)
    3941:	61 92 34 00 00 00 00 00	r2 = *(u32 *)(r9 + 0x34)
    3942:	71 94 38 00 00 00 00 00	r4 = *(u8 *)(r9 + 0x38)
    3943:	73 4a f8 ff 00 00 00 00	*(u8 *)(r10 - 0x8) = r4
    3944:	63 2a f4 ff 00 00 00 00	*(u32 *)(r10 - 0xc) = r2
    3945:	63 1a f0 ff 00 00 00 00	*(u32 *)(r10 - 0x10) = r1
    3946:	18 01 00 00 f0 ac 00 00 00 00 00 00 00 00 00 00	r1 = 0xacf0 ll
    3948:	7b 1a e8 ff 00 00 00 00	*(u64 *)(r10 - 0x18) = r1
    3949:	7b 0a d8 ff 00 00 00 00	*(u64 *)(r10 - 0x28) = r0
    3950:	7b 5a d0 ff 00 00 00 00	*(u64 *)(r10 - 0x30) = r5
    3951:	7b 3a c8 ff 00 00 00 00	*(u64 *)(r10 - 0x38) = r3
    3952:	79 a1 80 ff 00 00 00 00	r1 = *(u64 *)(r10 - 0x80)
    3953:	7b 1a c0 ff 00 00 00 00	*(u64 *)(r10 - 0x40) = r1
    3954:	bf a1 00 00 00 00 00 00	r1 = r10
    3955:	07 01 00 00 a0 ff ff ff	r1 += -0x60
    3956:	7b 1a e0 ff 00 00 00 00	*(u64 *)(r10 - 0x20) = r1
    3957:	bf 72 00 00 00 00 00 00	r2 = r7
    3958:	79 a3 98 ff 00 00 00 00	r3 = *(u64 *)(r10 - 0x68)
    3959:	85 10 00 00 ff fe ff ff	call -0x101
    3960:	55 00 16 00 00 00 00 00	if r0 != 0x0 goto +0x16 <LBB11_14>
    3961:	bf a1 00 00 00 00 00 00	r1 = r10
    3962:	07 01 00 00 a0 ff ff ff	r1 += -0x60
    3963:	18 02 00 00 7a a8 00 00 00 00 00 00 00 00 00 00	r2 = 0xa87a ll
    3965:	b7 03 00 00 02 00 00 00	r3 = 0x2
    3966:	85 10 00 00 f8 fe ff ff	call -0x108
    3967:	55 00 0f 00 00 00 00 00	if r0 != 0x0 goto +0xf <LBB11_14>
    3968:	79 a1 90 ff 00 00 00 00	r1 = *(u64 *)(r10 - 0x70)
    3969:	79 13 18 00 00 00 00 00	r3 = *(u64 *)(r1 + 0x18)
    3970:	bf a2 00 00 00 00 00 00	r2 = r10
    3971:	07 02 00 00 c0 ff ff ff	r2 += -0x40
    3972:	79 a1 88 ff 00 00 00 00	r1 = *(u64 *)(r10 - 0x78)
    3973:	8d 00 00 00 03 00 00 00	callx r3
    3974:	55 00 08 00 00 00 00 00	if r0 != 0x0 goto +0x8 <LBB11_14>
    3975:	79 a1 e8 ff 00 00 00 00	r1 = *(u64 *)(r10 - 0x18)
    3976:	79 14 18 00 00 00 00 00	r4 = *(u64 *)(r1 + 0x18)
    3977:	79 a1 e0 ff 00 00 00 00	r1 = *(u64 *)(r10 - 0x20)
    3978:	18 02 00 00 7c a8 00 00 00 00 00 00 00 00 00 00	r2 = 0xa87c ll
    3980:	b7 03 00 00 02 00 00 00	r3 = 0x2
    3981:	8d 00 00 00 04 00 00 00	callx r4
    3982:	bf 08 00 00 00 00 00 00	r8 = r0

0000000000007c78 <LBB11_14>:
    3983:	b7 02 00 00 01 00 00 00	r2 = 0x1
    3984:	05 00 2c 00 00 00 00 00	goto +0x2c <LBB11_18>

0000000000007c88 <LBB11_3>:
    3985:	bf 21 00 00 00 00 00 00	r1 = r2
    3986:	18 02 00 00 80 a8 00 00 00 00 00 00 00 00 00 00	r2 = 0xa880 ll
    3988:	15 01 02 00 00 00 00 00	if r1 == 0x0 goto +0x2 <LBB11_5>
    3989:	18 02 00 00 7e a8 00 00 00 00 00 00 00 00 00 00	r2 = 0xa87e ll

0000000000007cb8 <LBB11_5>:
    3991:	b7 03 00 00 03 00 00 00	r3 = 0x3
    3992:	15 01 01 00 00 00 00 00	if r1 == 0x0 goto +0x1 <LBB11_7>
    3993:	b7 03 00 00 02 00 00 00	r3 = 0x2

0000000000007cd0 <LBB11_7>:
    3994:	79 91 20 00 00 00 00 00	r1 = *(u64 *)(r9 + 0x20)
    3995:	79 94 28 00 00 00 00 00	r4 = *(u64 *)(r9 + 0x28)
    3996:	79 44 18 00 00 00 00 00	r4 = *(u64 *)(r4 + 0x18)
    3997:	8d 00 00 00 04 00 00 00	callx r4
    3998:	b7 08 00 00 01 00 00 00	r8 = 0x1
    3999:	b7 02 00 00 01 00 00 00	r2 = 0x1
    4000:	79 a9 90 ff 00 00 00 00	r9 = *(u64 *)(r10 - 0x70)
    4001:	79 a3 98 ff 00 00 00 00	r3 = *(u64 *)(r10 - 0x68)
    4002:	55 00 1a 00 00 00 00 00	if r0 != 0x0 goto +0x1a <LBB11_18>
    4003:	79 62 00 00 00 00 00 00	r2 = *(u64 *)(r6 + 0x0)
    4004:	79 21 20 00 00 00 00 00	r1 = *(u64 *)(r2 + 0x20)
    4005:	79 22 28 00 00 00 00 00	r2 = *(u64 *)(r2 + 0x28)
    4006:	79 24 18 00 00 00 00 00	r4 = *(u64 *)(r2 + 0x18)
    4007:	bf 72 00 00 00 00 00 00	r2 = r7
    4008:	8d 00 00 00 04 00 00 00	callx r4
    4009:	b7 02 00 00 01 00 00 00	r2 = 0x1
    4010:	b7 08 00 00 01 00 00 00	r8 = 0x1
    4011:	55 00 11 00 00 00 00 00	if r0 != 0x0 goto +0x11 <LBB11_18>
    4012:	79 62 00 00 00 00 00 00	r2 = *(u64 *)(r6 + 0x0)
    4013:	79 21 20 00 00 00 00 00	r1 = *(u64 *)(r2 + 0x20)
    4014:	79 22 28 00 00 00 00 00	r2 = *(u64 *)(r2 + 0x28)
    4015:	79 24 18 00 00 00 00 00	r4 = *(u64 *)(r2 + 0x18)
    4016:	18 02 00 00 7a a8 00 00 00 00 00 00 00 00 00 00	r2 = 0xa87a ll
    4018:	b7 03 00 00 02 00 00 00	r3 = 0x2
    4019:	8d 00 00 00 04 00 00 00	callx r4
    4020:	79 a1 88 ff 00 00 00 00	r1 = *(u64 *)(r10 - 0x78)
    4021:	b7 02 00 00 01 00 00 00	r2 = 0x1
    4022:	b7 08 00 00 01 00 00 00	r8 = 0x1
    4023:	55 00 05 00 00 00 00 00	if r0 != 0x0 goto +0x5 <LBB11_18>
    4024:	79 93 18 00 00 00 00 00	r3 = *(u64 *)(r9 + 0x18)
    4025:	79 62 00 00 00 00 00 00	r2 = *(u64 *)(r6 + 0x0)
    4026:	8d 00 00 00 03 00 00 00	callx r3
    4027:	b7 02 00 00 01 00 00 00	r2 = 0x1
    4028:	bf 08 00 00 00 00 00 00	r8 = r0

0000000000007de8 <LBB11_18>:
    4029:	73 26 09 00 00 00 00 00	*(u8 *)(r6 + 0x9) = r2
    4030:	73 86 08 00 00 00 00 00	*(u8 *)(r6 + 0x8) = r8
    4031:	bf 60 00 00 00 00 00 00	r0 = r6
    4032:	95 00 00 00 00 00 00 00	exit

0000000000007e08 <core::fmt::Write::write_char::h39497b63bb3a139e>:
    4033:	b7 03 00 00 00 00 00 00	r3 = 0x0
    4034:	63 3a fc ff 00 00 00 00	*(u32 *)(r10 - 0x4) = r3
    4035:	bf 23 00 00 00 00 00 00	r3 = r2
    4036:	67 03 00 00 20 00 00 00	r3 <<= 0x20
    4037:	77 03 00 00 20 00 00 00	r3 >>= 0x20
    4038:	b7 04 00 00 80 00 00 00	r4 = 0x80
    4039:	2d 34 15 00 00 00 00 00	if r4 > r3 goto +0x15 <LBB31_3>
    4040:	b7 04 00 00 00 08 00 00	r4 = 0x800
    4041:	2d 34 16 00 00 00 00 00	if r4 > r3 goto +0x16 <LBB31_4>
    4042:	bf 23 00 00 00 00 00 00	r3 = r2
    4043:	67 03 00 00 20 00 00 00	r3 <<= 0x20
    4044:	77 03 00 00 20 00 00 00	r3 >>= 0x20
    4045:	b7 04 00 00 00 00 01 00	r4 = 0x10000
    4046:	2d 34 01 00 00 00 00 00	if r4 > r3 goto +0x1 <LBB31_5>
    4047:	05 00 19 00 00 00 00 00	goto +0x19 <LBB31_6>

0000000000007e80 <LBB31_5>:
    4048:	57 02 00 00 3f 00 00 00	r2 &= 0x3f
    4049:	47 02 00 00 80 00 00 00	r2 |= 0x80
    4050:	73 2a fe ff 00 00 00 00	*(u8 *)(r10 - 0x2) = r2
    4051:	bf 32 00 00 00 00 00 00	r2 = r3
    4052:	77 02 00 00 0c 00 00 00	r2 >>= 0xc
    4053:	47 02 00 00 e0 00 00 00	r2 |= 0xe0
    4054:	73 2a fc ff 00 00 00 00	*(u8 *)(r10 - 0x4) = r2
    4055:	77 03 00 00 06 00 00 00	r3 >>= 0x6
    4056:	57 03 00 00 3f 00 00 00	r3 &= 0x3f
    4057:	47 03 00 00 80 00 00 00	r3 |= 0x80
    4058:	73 3a fd ff 00 00 00 00	*(u8 *)(r10 - 0x3) = r3
    4059:	b7 03 00 00 03 00 00 00	r3 = 0x3
    4060:	05 00 1d 00 00 00 00 00	goto +0x1d <LBB31_7>

0000000000007ee8 <LBB31_3>:
    4061:	73 2a fc ff 00 00 00 00	*(u8 *)(r10 - 0x4) = r2
    4062:	b7 03 00 00 01 00 00 00	r3 = 0x1
    4063:	05 00 1a 00 00 00 00 00	goto +0x1a <LBB31_7>

0000000000007f00 <LBB31_4>:
    4064:	bf 23 00 00 00 00 00 00	r3 = r2
    4065:	57 03 00 00 3f 00 00 00	r3 &= 0x3f
    4066:	47 03 00 00 80 00 00 00	r3 |= 0x80
    4067:	73 3a fd ff 00 00 00 00	*(u8 *)(r10 - 0x3) = r3
    4068:	77 02 00 00 06 00 00 00	r2 >>= 0x6
    4069:	47 02 00 00 c0 00 00 00	r2 |= 0xc0
    4070:	73 2a fc ff 00 00 00 00	*(u8 *)(r10 - 0x4) = r2
    4071:	b7 03 00 00 02 00 00 00	r3 = 0x2
    4072:	05 00 11 00 00 00 00 00	goto +0x11 <LBB31_7>

0000000000007f48 <LBB31_6>:
    4073:	57 02 00 00 3f 00 00 00	r2 &= 0x3f
    4074:	47 02 00 00 80 00 00 00	r2 |= 0x80
    4075:	73 2a ff ff 00 00 00 00	*(u8 *)(r10 - 0x1) = r2
    4076:	bf 32 00 00 00 00 00 00	r2 = r3
    4077:	77 02 00 00 12 00 00 00	r2 >>= 0x12
    4078:	47 02 00 00 f0 00 00 00	r2 |= 0xf0
    4079:	73 2a fc ff 00 00 00 00	*(u8 *)(r10 - 0x4) = r2
    4080:	bf 32 00 00 00 00 00 00	r2 = r3
    4081:	77 02 00 00 06 00 00 00	r2 >>= 0x6
    4082:	57 02 00 00 3f 00 00 00	r2 &= 0x3f
    4083:	47 02 00 00 80 00 00 00	r2 |= 0x80
    4084:	73 2a fe ff 00 00 00 00	*(u8 *)(r10 - 0x2) = r2
    4085:	77 03 00 00 0c 00 00 00	r3 >>= 0xc
    4086:	57 03 00 00 3f 00 00 00	r3 &= 0x3f
    4087:	47 03 00 00 80 00 00 00	r3 |= 0x80
    4088:	73 3a fd ff 00 00 00 00	*(u8 *)(r10 - 0x3) = r3
    4089:	b7 03 00 00 04 00 00 00	r3 = 0x4

0000000000007fd0 <LBB31_7>:
    4090:	bf a2 00 00 00 00 00 00	r2 = r10
    4091:	07 02 00 00 fc ff ff ff	r2 += -0x4
    4092:	85 10 00 00 7a fe ff ff	call -0x186
    4093:	95 00 00 00 00 00 00 00	exit

0000000000007ff0 <core::fmt::Write::write_fmt::h84d5ce1c4488975a>:
    4094:	7b 1a c8 ff 00 00 00 00	*(u64 *)(r10 - 0x38) = r1
    4095:	79 21 28 00 00 00 00 00	r1 = *(u64 *)(r2 + 0x28)
    4096:	7b 1a f8 ff 00 00 00 00	*(u64 *)(r10 - 0x8) = r1
    4097:	79 21 20 00 00 00 00 00	r1 = *(u64 *)(r2 + 0x20)
    4098:	7b 1a f0 ff 00 00 00 00	*(u64 *)(r10 - 0x10) = r1
    4099:	79 21 18 00 00 00 00 00	r1 = *(u64 *)(r2 + 0x18)
    4100:	7b 1a e8 ff 00 00 00 00	*(u64 *)(r10 - 0x18) = r1
    4101:	79 21 10 00 00 00 00 00	r1 = *(u64 *)(r2 + 0x10)
    4102:	7b 1a e0 ff 00 00 00 00	*(u64 *)(r10 - 0x20) = r1
    4103:	79 21 08 00 00 00 00 00	r1 = *(u64 *)(r2 + 0x8)
    4104:	7b 1a d8 ff 00 00 00 00	*(u64 *)(r10 - 0x28) = r1
    4105:	79 21 00 00 00 00 00 00	r1 = *(u64 *)(r2 + 0x0)
    4106:	7b 1a d0 ff 00 00 00 00	*(u64 *)(r10 - 0x30) = r1
    4107:	bf a1 00 00 00 00 00 00	r1 = r10
    4108:	07 01 00 00 c8 ff ff ff	r1 += -0x38
    4109:	bf a3 00 00 00 00 00 00	r3 = r10
    4110:	07 03 00 00 d0 ff ff ff	r3 += -0x30
    4111:	18 02 00 00 50 ad 00 00 00 00 00 00 00 00 00 00	r2 = 0xad50 ll
    4113:	85 10 00 00 b2 fa ff ff	call -0x54e
    4114:	95 00 00 00 00 00 00 00	exit

0000000000008098 <_$LT$$RF$mut$u20$W$u20$as$u20$core..fmt..Write$GT$::write_str::ha2bc3b44e79acb04>:
    4115:	79 11 00 00 00 00 00 00	r1 = *(u64 *)(r1 + 0x0)
    4116:	85 10 00 00 62 fe ff ff	call -0x19e
    4117:	95 00 00 00 00 00 00 00	exit

00000000000080b0 <_$LT$$RF$mut$u20$W$u20$as$u20$core..fmt..Write$GT$::write_char::h3ec6cabce834f8c2>:
    4118:	79 11 00 00 00 00 00 00	r1 = *(u64 *)(r1 + 0x0)
    4119:	b7 03 00 00 00 00 00 00	r3 = 0x0
    4120:	63 3a fc ff 00 00 00 00	*(u32 *)(r10 - 0x4) = r3
    4121:	bf 23 00 00 00 00 00 00	r3 = r2
    4122:	67 03 00 00 20 00 00 00	r3 <<= 0x20
    4123:	77 03 00 00 20 00 00 00	r3 >>= 0x20
    4124:	b7 04 00 00 80 00 00 00	r4 = 0x80
    4125:	2d 34 15 00 00 00 00 00	if r4 > r3 goto +0x15 <LBB34_3>
    4126:	b7 04 00 00 00 08 00 00	r4 = 0x800
    4127:	2d 34 16 00 00 00 00 00	if r4 > r3 goto +0x16 <LBB34_4>
    4128:	bf 23 00 00 00 00 00 00	r3 = r2
    4129:	67 03 00 00 20 00 00 00	r3 <<= 0x20
    4130:	77 03 00 00 20 00 00 00	r3 >>= 0x20
    4131:	b7 04 00 00 00 00 01 00	r4 = 0x10000
    4132:	2d 34 01 00 00 00 00 00	if r4 > r3 goto +0x1 <LBB34_5>
    4133:	05 00 19 00 00 00 00 00	goto +0x19 <LBB34_6>

0000000000008130 <LBB34_5>:
    4134:	57 02 00 00 3f 00 00 00	r2 &= 0x3f
    4135:	47 02 00 00 80 00 00 00	r2 |= 0x80
    4136:	73 2a fe ff 00 00 00 00	*(u8 *)(r10 - 0x2) = r2
    4137:	bf 32 00 00 00 00 00 00	r2 = r3
    4138:	77 02 00 00 0c 00 00 00	r2 >>= 0xc
    4139:	47 02 00 00 e0 00 00 00	r2 |= 0xe0
    4140:	73 2a fc ff 00 00 00 00	*(u8 *)(r10 - 0x4) = r2
    4141:	77 03 00 00 06 00 00 00	r3 >>= 0x6
    4142:	57 03 00 00 3f 00 00 00	r3 &= 0x3f
    4143:	47 03 00 00 80 00 00 00	r3 |= 0x80
    4144:	73 3a fd ff 00 00 00 00	*(u8 *)(r10 - 0x3) = r3
    4145:	b7 03 00 00 03 00 00 00	r3 = 0x3
    4146:	05 00 1d 00 00 00 00 00	goto +0x1d <LBB34_7>

0000000000008198 <LBB34_3>:
    4147:	73 2a fc ff 00 00 00 00	*(u8 *)(r10 - 0x4) = r2
    4148:	b7 03 00 00 01 00 00 00	r3 = 0x1
    4149:	05 00 1a 00 00 00 00 00	goto +0x1a <LBB34_7>

00000000000081b0 <LBB34_4>:
    4150:	bf 23 00 00 00 00 00 00	r3 = r2
    4151:	57 03 00 00 3f 00 00 00	r3 &= 0x3f
    4152:	47 03 00 00 80 00 00 00	r3 |= 0x80
    4153:	73 3a fd ff 00 00 00 00	*(u8 *)(r10 - 0x3) = r3
    4154:	77 02 00 00 06 00 00 00	r2 >>= 0x6
    4155:	47 02 00 00 c0 00 00 00	r2 |= 0xc0
    4156:	73 2a fc ff 00 00 00 00	*(u8 *)(r10 - 0x4) = r2
    4157:	b7 03 00 00 02 00 00 00	r3 = 0x2
    4158:	05 00 11 00 00 00 00 00	goto +0x11 <LBB34_7>

00000000000081f8 <LBB34_6>:
    4159:	57 02 00 00 3f 00 00 00	r2 &= 0x3f
    4160:	47 02 00 00 80 00 00 00	r2 |= 0x80
    4161:	73 2a ff ff 00 00 00 00	*(u8 *)(r10 - 0x1) = r2
    4162:	bf 32 00 00 00 00 00 00	r2 = r3
    4163:	77 02 00 00 12 00 00 00	r2 >>= 0x12
    4164:	47 02 00 00 f0 00 00 00	r2 |= 0xf0
    4165:	73 2a fc ff 00 00 00 00	*(u8 *)(r10 - 0x4) = r2
    4166:	bf 32 00 00 00 00 00 00	r2 = r3
    4167:	77 02 00 00 06 00 00 00	r2 >>= 0x6
    4168:	57 02 00 00 3f 00 00 00	r2 &= 0x3f
    4169:	47 02 00 00 80 00 00 00	r2 |= 0x80
    4170:	73 2a fe ff 00 00 00 00	*(u8 *)(r10 - 0x2) = r2
    4171:	77 03 00 00 0c 00 00 00	r3 >>= 0xc
    4172:	57 03 00 00 3f 00 00 00	r3 &= 0x3f
    4173:	47 03 00 00 80 00 00 00	r3 |= 0x80
    4174:	73 3a fd ff 00 00 00 00	*(u8 *)(r10 - 0x3) = r3
    4175:	b7 03 00 00 04 00 00 00	r3 = 0x4

0000000000008280 <LBB34_7>:
    4176:	bf a2 00 00 00 00 00 00	r2 = r10
    4177:	07 02 00 00 fc ff ff ff	r2 += -0x4
    4178:	85 10 00 00 24 fe ff ff	call -0x1dc
    4179:	95 00 00 00 00 00 00 00	exit

00000000000082a0 <_$LT$$RF$mut$u20$W$u20$as$u20$core..fmt..Write$GT$::write_fmt::he8d0c71fa9b3a2b7>:
    4180:	79 11 00 00 00 00 00 00	r1 = *(u64 *)(r1 + 0x0)
    4181:	7b 1a c8 ff 00 00 00 00	*(u64 *)(r10 - 0x38) = r1
    4182:	79 21 28 00 00 00 00 00	r1 = *(u64 *)(r2 + 0x28)
    4183:	7b 1a f8 ff 00 00 00 00	*(u64 *)(r10 - 0x8) = r1
    4184:	79 21 20 00 00 00 00 00	r1 = *(u64 *)(r2 + 0x20)
    4185:	7b 1a f0 ff 00 00 00 00	*(u64 *)(r10 - 0x10) = r1
    4186:	79 21 18 00 00 00 00 00	r1 = *(u64 *)(r2 + 0x18)
    4187:	7b 1a e8 ff 00 00 00 00	*(u64 *)(r10 - 0x18) = r1
    4188:	79 21 10 00 00 00 00 00	r1 = *(u64 *)(r2 + 0x10)
    4189:	7b 1a e0 ff 00 00 00 00	*(u64 *)(r10 - 0x20) = r1
    4190:	79 21 08 00 00 00 00 00	r1 = *(u64 *)(r2 + 0x8)
    4191:	7b 1a d8 ff 00 00 00 00	*(u64 *)(r10 - 0x28) = r1
    4192:	79 21 00 00 00 00 00 00	r1 = *(u64 *)(r2 + 0x0)
    4193:	7b 1a d0 ff 00 00 00 00	*(u64 *)(r10 - 0x30) = r1
    4194:	bf a1 00 00 00 00 00 00	r1 = r10
    4195:	07 01 00 00 c8 ff ff ff	r1 += -0x38
    4196:	bf a3 00 00 00 00 00 00	r3 = r10
    4197:	07 03 00 00 d0 ff ff ff	r3 += -0x30
    4198:	18 02 00 00 50 ad 00 00 00 00 00 00 00 00 00 00	r2 = 0xad50 ll
    4200:	85 10 00 00 5b fa ff ff	call -0x5a5
    4201:	95 00 00 00 00 00 00 00	exit

0000000000008350 <core::ptr::drop_in_place$LT$$RF$core..option..Option$LT$usize$GT$$GT$::h20819488470fe3b9 (.llvm.15579325538054236194)>:
    4202:	95 00 00 00 00 00 00 00	exit

0000000000008358 <core::panicking::panic::hbad17612dc21ff18>:
    4203:	18 04 00 00 88 a8 00 00 00 00 00 00 00 00 00 00	r4 = 0xa888 ll
    4205:	7b 4a e0 ff 00 00 00 00	*(u64 *)(r10 - 0x20) = r4
    4206:	b7 04 00 00 00 00 00 00	r4 = 0x0
    4207:	7b 4a e8 ff 00 00 00 00	*(u64 *)(r10 - 0x18) = r4
    4208:	7b 4a d0 ff 00 00 00 00	*(u64 *)(r10 - 0x30) = r4
    4209:	b7 04 00 00 01 00 00 00	r4 = 0x1
    4210:	7b 4a c8 ff 00 00 00 00	*(u64 *)(r10 - 0x38) = r4
    4211:	bf a4 00 00 00 00 00 00	r4 = r10
    4212:	07 04 00 00 f0 ff ff ff	r4 += -0x10
    4213:	7b 4a c0 ff 00 00 00 00	*(u64 *)(r10 - 0x40) = r4
    4214:	7b 2a f8 ff 00 00 00 00	*(u64 *)(r10 - 0x8) = r2
    4215:	7b 1a f0 ff 00 00 00 00	*(u64 *)(r10 - 0x10) = r1
    4216:	bf a1 00 00 00 00 00 00	r1 = r10
    4217:	07 01 00 00 c0 ff ff ff	r1 += -0x40
    4218:	bf 32 00 00 00 00 00 00	r2 = r3
    4219:	85 10 00 00 1d 00 00 00	call 0x1d
    4220:	85 10 00 00 ff ff ff ff	call -0x1

00000000000083e8 <core::panicking::panic_bounds_check::had46ddd07a62a1be>:
    4221:	7b 2a a8 ff 00 00 00 00	*(u64 *)(r10 - 0x58) = r2
    4222:	7b 1a a0 ff 00 00 00 00	*(u64 *)(r10 - 0x60) = r1
    4223:	bf a1 00 00 00 00 00 00	r1 = r10
    4224:	07 01 00 00 e0 ff ff ff	r1 += -0x20
    4225:	7b 1a d0 ff 00 00 00 00	*(u64 *)(r10 - 0x30) = r1
    4226:	b7 01 00 00 00 00 00 00	r1 = 0x0
    4227:	7b 1a c0 ff 00 00 00 00	*(u64 *)(r10 - 0x40) = r1
    4228:	b7 01 00 00 02 00 00 00	r1 = 0x2
    4229:	7b 1a d8 ff 00 00 00 00	*(u64 *)(r10 - 0x28) = r1
    4230:	7b 1a b8 ff 00 00 00 00	*(u64 *)(r10 - 0x48) = r1
    4231:	18 01 00 00 a0 ad 00 00 00 00 00 00 00 00 00 00	r1 = 0xada0 ll
    4233:	7b 1a b0 ff 00 00 00 00	*(u64 *)(r10 - 0x50) = r1
    4234:	bf a1 00 00 00 00 00 00	r1 = r10
    4235:	07 01 00 00 a0 ff ff ff	r1 += -0x60
    4236:	7b 1a f0 ff 00 00 00 00	*(u64 *)(r10 - 0x10) = r1
    4237:	18 01 00 00 c8 32 00 00 00 00 00 00 00 00 00 00	r1 = 0x32c8 ll
    4239:	7b 1a f8 ff 00 00 00 00	*(u64 *)(r10 - 0x8) = r1
    4240:	7b 1a e8 ff 00 00 00 00	*(u64 *)(r10 - 0x18) = r1
    4241:	bf a1 00 00 00 00 00 00	r1 = r10
    4242:	07 01 00 00 a8 ff ff ff	r1 += -0x58
    4243:	7b 1a e0 ff 00 00 00 00	*(u64 *)(r10 - 0x20) = r1
    4244:	bf a1 00 00 00 00 00 00	r1 = r10
    4245:	07 01 00 00 b0 ff ff ff	r1 += -0x50
    4246:	bf 32 00 00 00 00 00 00	r2 = r3
    4247:	85 10 00 00 01 00 00 00	call 0x1
    4248:	85 10 00 00 ff ff ff ff	call -0x1

00000000000084c8 <core::panicking::panic_fmt::h40839f35bc1a030e>:
    4249:	7b 2a f8 ff 00 00 00 00	*(u64 *)(r10 - 0x8) = r2
    4250:	7b 1a f0 ff 00 00 00 00	*(u64 *)(r10 - 0x10) = r1
    4251:	18 01 00 00 80 ad 00 00 00 00 00 00 00 00 00 00	r1 = 0xad80 ll
    4253:	7b 1a e8 ff 00 00 00 00	*(u64 *)(r10 - 0x18) = r1
    4254:	18 01 00 00 88 a8 00 00 00 00 00 00 00 00 00 00	r1 = 0xa888 ll
    4256:	7b 1a e0 ff 00 00 00 00	*(u64 *)(r10 - 0x20) = r1
    4257:	bf a1 00 00 00 00 00 00	r1 = r10
    4258:	07 01 00 00 e0 ff ff ff	r1 += -0x20
    4259:	85 10 00 00 e3 f3 ff ff	call -0xc1d
    4260:	85 10 00 00 ff ff ff ff	call -0x1

0000000000008528 <core::slice::index::slice_start_index_len_fail::h8d2738daa4c4aabf>:
    4261:	7b 2a a8 ff 00 00 00 00	*(u64 *)(r10 - 0x58) = r2
    4262:	7b 1a a0 ff 00 00 00 00	*(u64 *)(r10 - 0x60) = r1
    4263:	bf a1 00 00 00 00 00 00	r1 = r10
    4264:	07 01 00 00 e0 ff ff ff	r1 += -0x20
    4265:	7b 1a d0 ff 00 00 00 00	*(u64 *)(r10 - 0x30) = r1
    4266:	b7 01 00 00 00 00 00 00	r1 = 0x0
    4267:	7b 1a c0 ff 00 00 00 00	*(u64 *)(r10 - 0x40) = r1
    4268:	b7 01 00 00 02 00 00 00	r1 = 0x2
    4269:	7b 1a d8 ff 00 00 00 00	*(u64 *)(r10 - 0x28) = r1
    4270:	7b 1a b8 ff 00 00 00 00	*(u64 *)(r10 - 0x48) = r1
    4271:	18 01 00 00 c0 ad 00 00 00 00 00 00 00 00 00 00	r1 = 0xadc0 ll
    4273:	7b 1a b0 ff 00 00 00 00	*(u64 *)(r10 - 0x50) = r1
    4274:	bf a1 00 00 00 00 00 00	r1 = r10
    4275:	07 01 00 00 a8 ff ff ff	r1 += -0x58
    4276:	7b 1a f0 ff 00 00 00 00	*(u64 *)(r10 - 0x10) = r1
    4277:	18 01 00 00 c8 32 00 00 00 00 00 00 00 00 00 00	r1 = 0x32c8 ll
    4279:	7b 1a f8 ff 00 00 00 00	*(u64 *)(r10 - 0x8) = r1
    4280:	7b 1a e8 ff 00 00 00 00	*(u64 *)(r10 - 0x18) = r1
    4281:	bf a1 00 00 00 00 00 00	r1 = r10
    4282:	07 01 00 00 a0 ff ff ff	r1 += -0x60
    4283:	7b 1a e0 ff 00 00 00 00	*(u64 *)(r10 - 0x20) = r1
    4284:	bf a1 00 00 00 00 00 00	r1 = r10
    4285:	07 01 00 00 b0 ff ff ff	r1 += -0x50
    4286:	bf 32 00 00 00 00 00 00	r2 = r3
    4287:	85 10 00 00 d9 ff ff ff	call -0x27
    4288:	85 10 00 00 ff ff ff ff	call -0x1

0000000000008608 <core::slice::index::slice_end_index_len_fail::h0972d8a3d7d5a815>:
    4289:	7b 2a a8 ff 00 00 00 00	*(u64 *)(r10 - 0x58) = r2
    4290:	7b 1a a0 ff 00 00 00 00	*(u64 *)(r10 - 0x60) = r1
    4291:	bf a1 00 00 00 00 00 00	r1 = r10
    4292:	07 01 00 00 e0 ff ff ff	r1 += -0x20
    4293:	7b 1a d0 ff 00 00 00 00	*(u64 *)(r10 - 0x30) = r1
    4294:	b7 01 00 00 00 00 00 00	r1 = 0x0
    4295:	7b 1a c0 ff 00 00 00 00	*(u64 *)(r10 - 0x40) = r1
    4296:	b7 01 00 00 02 00 00 00	r1 = 0x2
    4297:	7b 1a d8 ff 00 00 00 00	*(u64 *)(r10 - 0x28) = r1
    4298:	7b 1a b8 ff 00 00 00 00	*(u64 *)(r10 - 0x48) = r1
    4299:	18 01 00 00 e0 ad 00 00 00 00 00 00 00 00 00 00	r1 = 0xade0 ll
    4301:	7b 1a b0 ff 00 00 00 00	*(u64 *)(r10 - 0x50) = r1
    4302:	bf a1 00 00 00 00 00 00	r1 = r10
    4303:	07 01 00 00 a8 ff ff ff	r1 += -0x58
    4304:	7b 1a f0 ff 00 00 00 00	*(u64 *)(r10 - 0x10) = r1
    4305:	18 01 00 00 c8 32 00 00 00 00 00 00 00 00 00 00	r1 = 0x32c8 ll
    4307:	7b 1a f8 ff 00 00 00 00	*(u64 *)(r10 - 0x8) = r1
    4308:	7b 1a e8 ff 00 00 00 00	*(u64 *)(r10 - 0x18) = r1
    4309:	bf a1 00 00 00 00 00 00	r1 = r10
    4310:	07 01 00 00 a0 ff ff ff	r1 += -0x60
    4311:	7b 1a e0 ff 00 00 00 00	*(u64 *)(r10 - 0x20) = r1
    4312:	bf a1 00 00 00 00 00 00	r1 = r10
    4313:	07 01 00 00 b0 ff ff ff	r1 += -0x50
    4314:	bf 32 00 00 00 00 00 00	r2 = r3
    4315:	85 10 00 00 bd ff ff ff	call -0x43
    4316:	85 10 00 00 ff ff ff ff	call -0x1

00000000000086e8 <core::slice::index::slice_index_order_fail::h895e845a004cb49e>:
    4317:	7b 2a a8 ff 00 00 00 00	*(u64 *)(r10 - 0x58) = r2
    4318:	7b 1a a0 ff 00 00 00 00	*(u64 *)(r10 - 0x60) = r1
    4319:	bf a1 00 00 00 00 00 00	r1 = r10
    4320:	07 01 00 00 e0 ff ff ff	r1 += -0x20
    4321:	7b 1a d0 ff 00 00 00 00	*(u64 *)(r10 - 0x30) = r1
    4322:	b7 01 00 00 00 00 00 00	r1 = 0x0
    4323:	7b 1a c0 ff 00 00 00 00	*(u64 *)(r10 - 0x40) = r1
    4324:	b7 01 00 00 02 00 00 00	r1 = 0x2
    4325:	7b 1a d8 ff 00 00 00 00	*(u64 *)(r10 - 0x28) = r1
    4326:	7b 1a b8 ff 00 00 00 00	*(u64 *)(r10 - 0x48) = r1
    4327:	18 01 00 00 00 ae 00 00 00 00 00 00 00 00 00 00	r1 = 0xae00 ll
    4329:	7b 1a b0 ff 00 00 00 00	*(u64 *)(r10 - 0x50) = r1
    4330:	bf a1 00 00 00 00 00 00	r1 = r10
    4331:	07 01 00 00 a8 ff ff ff	r1 += -0x58
    4332:	7b 1a f0 ff 00 00 00 00	*(u64 *)(r10 - 0x10) = r1
    4333:	18 01 00 00 c8 32 00 00 00 00 00 00 00 00 00 00	r1 = 0x32c8 ll
    4335:	7b 1a f8 ff 00 00 00 00	*(u64 *)(r10 - 0x8) = r1
    4336:	7b 1a e8 ff 00 00 00 00	*(u64 *)(r10 - 0x18) = r1
    4337:	bf a1 00 00 00 00 00 00	r1 = r10
    4338:	07 01 00 00 a0 ff ff ff	r1 += -0x60
    4339:	7b 1a e0 ff 00 00 00 00	*(u64 *)(r10 - 0x20) = r1
    4340:	bf a1 00 00 00 00 00 00	r1 = r10
    4341:	07 01 00 00 b0 ff ff ff	r1 += -0x50
    4342:	bf 32 00 00 00 00 00 00	r2 = r3
    4343:	85 10 00 00 a1 ff ff ff	call -0x5f
    4344:	85 10 00 00 ff ff ff ff	call -0x1

00000000000087c8 <memcpy>:
    4345:	bf 16 00 00 00 00 00 00	r6 = r1
    4346:	bf 31 00 00 00 00 00 00	r1 = r3
    4347:	77 01 00 00 03 00 00 00	r1 >>= 0x3
    4348:	bf 14 00 00 00 00 00 00	r4 = r1
    4349:	27 04 00 00 f9 ff ff ff	r4 *= -0x7
    4350:	0f 34 00 00 00 00 00 00	r4 += r3
    4351:	b7 05 00 00 09 00 00 00	r5 = 0x9
    4352:	2d 45 03 00 00 00 00 00	if r5 > r4 goto +0x3 <LBB0_2>
    4353:	bf 61 00 00 00 00 00 00	r1 = r6
    4354:	85 10 00 00 ff ff ff ff	call -0x1
    4355:	05 00 18 00 00 00 00 00	goto +0x18 <LBB0_9>

0000000000008820 <LBB0_2>:
    4356:	b7 04 00 00 00 00 00 00	r4 = 0x0
    4357:	15 01 0b 00 00 00 00 00	if r1 == 0x0 goto +0xb <LBB0_6>
    4358:	bf 24 00 00 00 00 00 00	r4 = r2
    4359:	bf 65 00 00 00 00 00 00	r5 = r6

0000000000008840 <LBB0_4>:
    4360:	79 40 00 00 00 00 00 00	r0 = *(u64 *)(r4 + 0x0)
    4361:	7b 05 00 00 00 00 00 00	*(u64 *)(r5 + 0x0) = r0
    4362:	07 04 00 00 08 00 00 00	r4 += 0x8
    4363:	07 05 00 00 08 00 00 00	r5 += 0x8
    4364:	07 01 00 00 ff ff ff ff	r1 += -0x1
    4365:	15 01 01 00 00 00 00 00	if r1 == 0x0 goto +0x1 <LBB0_5>
    4366:	05 00 f9 ff 00 00 00 00	goto -0x7 <LBB0_4>

0000000000008878 <LBB0_5>:
    4367:	bf 34 00 00 00 00 00 00	r4 = r3
    4368:	57 04 00 00 f8 ff ff ff	r4 &= -0x8

0000000000008888 <LBB0_6>:
    4369:	7d 34 0a 00 00 00 00 00	if r4 s>= r3 goto +0xa <LBB0_9>
    4370:	0f 42 00 00 00 00 00 00	r2 += r4
    4371:	bf 61 00 00 00 00 00 00	r1 = r6
    4372:	0f 41 00 00 00 00 00 00	r1 += r4
    4373:	1f 43 00 00 00 00 00 00	r3 -= r4

00000000000088b0 <LBB0_8>:
    4374:	71 24 00 00 00 00 00 00	r4 = *(u8 *)(r2 + 0x0)
    4375:	73 41 00 00 00 00 00 00	*(u8 *)(r1 + 0x0) = r4
    4376:	07 02 00 00 01 00 00 00	r2 += 0x1
    4377:	07 01 00 00 01 00 00 00	r1 += 0x1
    4378:	07 03 00 00 ff ff ff ff	r3 += -0x1
    4379:	55 03 fa ff 00 00 00 00	if r3 != 0x0 goto -0x6 <LBB0_8>

00000000000088e0 <LBB0_9>:
    4380:	bf 60 00 00 00 00 00 00	r0 = r6
    4381:	95 00 00 00 00 00 00 00	exit

00000000000088f0 <memset>:
    4382:	bf 16 00 00 00 00 00 00	r6 = r1
    4383:	bf 31 00 00 00 00 00 00	r1 = r3
    4384:	77 01 00 00 03 00 00 00	r1 >>= 0x3
    4385:	bf 14 00 00 00 00 00 00	r4 = r1
    4386:	27 04 00 00 f9 ff ff ff	r4 *= -0x7
    4387:	0f 34 00 00 00 00 00 00	r4 += r3
    4388:	b7 05 00 00 09 00 00 00	r5 = 0x9
    4389:	2d 45 04 00 00 00 00 00	if r5 > r4 goto +0x4 <LBB2_2>
    4390:	57 02 00 00 ff 00 00 00	r2 &= 0xff
    4391:	bf 61 00 00 00 00 00 00	r1 = r6
    4392:	85 10 00 00 ff ff ff ff	call -0x1
    4393:	05 00 1d 00 00 00 00 00	goto +0x1d <LBB2_9>

0000000000008950 <LBB2_2>:
    4394:	b7 04 00 00 00 00 00 00	r4 = 0x0
    4395:	15 01 13 00 00 00 00 00	if r1 == 0x0 goto +0x13 <LBB2_6>
    4396:	bf 24 00 00 00 00 00 00	r4 = r2
    4397:	57 04 00 00 ff 00 00 00	r4 &= 0xff
    4398:	bf 45 00 00 00 00 00 00	r5 = r4
    4399:	67 05 00 00 08 00 00 00	r5 <<= 0x8
    4400:	4f 45 00 00 00 00 00 00	r5 |= r4
    4401:	bf 50 00 00 00 00 00 00	r0 = r5
    4402:	67 00 00 00 10 00 00 00	r0 <<= 0x10
    4403:	4f 50 00 00 00 00 00 00	r0 |= r5
    4404:	bf 04 00 00 00 00 00 00	r4 = r0
    4405:	67 04 00 00 20 00 00 00	r4 <<= 0x20
    4406:	4f 04 00 00 00 00 00 00	r4 |= r0
    4407:	bf 65 00 00 00 00 00 00	r5 = r6

00000000000089c0 <LBB2_4>:
    4408:	7b 45 00 00 00 00 00 00	*(u64 *)(r5 + 0x0) = r4
    4409:	07 05 00 00 08 00 00 00	r5 += 0x8
    4410:	07 01 00 00 ff ff ff ff	r1 += -0x1
    4411:	15 01 01 00 00 00 00 00	if r1 == 0x0 goto +0x1 <LBB2_5>
    4412:	05 00 fb ff 00 00 00 00	goto -0x5 <LBB2_4>

00000000000089e8 <LBB2_5>:
    4413:	bf 34 00 00 00 00 00 00	r4 = r3
    4414:	57 04 00 00 f8 ff ff ff	r4 &= -0x8

00000000000089f8 <LBB2_6>:
    4415:	7d 34 07 00 00 00 00 00	if r4 s>= r3 goto +0x7 <LBB2_9>
    4416:	bf 61 00 00 00 00 00 00	r1 = r6
    4417:	0f 41 00 00 00 00 00 00	r1 += r4
    4418:	1f 43 00 00 00 00 00 00	r3 -= r4

0000000000008a18 <LBB2_8>:
    4419:	73 21 00 00 00 00 00 00	*(u8 *)(r1 + 0x0) = r2
    4420:	07 01 00 00 01 00 00 00	r1 += 0x1
    4421:	07 03 00 00 ff ff ff ff	r3 += -0x1
    4422:	55 03 fc ff 00 00 00 00	if r3 != 0x0 goto -0x4 <LBB2_8>

0000000000008a38 <LBB2_9>:
    4423:	bf 60 00 00 00 00 00 00	r0 = r6
    4424:	95 00 00 00 00 00 00 00	exit

0000000000008a48 <__multi3>:
    4425:	2f 43 00 00 00 00 00 00	r3 *= r4
    4426:	2f 25 00 00 00 00 00 00	r5 *= r2
    4427:	0f 35 00 00 00 00 00 00	r5 += r3
    4428:	bf 20 00 00 00 00 00 00	r0 = r2
    4429:	77 00 00 00 20 00 00 00	r0 >>= 0x20
    4430:	bf 43 00 00 00 00 00 00	r3 = r4
    4431:	77 03 00 00 20 00 00 00	r3 >>= 0x20
    4432:	bf 36 00 00 00 00 00 00	r6 = r3
    4433:	2f 06 00 00 00 00 00 00	r6 *= r0
    4434:	0f 65 00 00 00 00 00 00	r5 += r6
    4435:	67 04 00 00 20 00 00 00	r4 <<= 0x20
    4436:	77 04 00 00 20 00 00 00	r4 >>= 0x20
    4437:	bf 46 00 00 00 00 00 00	r6 = r4
    4438:	2f 06 00 00 00 00 00 00	r6 *= r0
    4439:	67 02 00 00 20 00 00 00	r2 <<= 0x20
    4440:	77 02 00 00 20 00 00 00	r2 >>= 0x20
    4441:	2f 24 00 00 00 00 00 00	r4 *= r2
    4442:	bf 40 00 00 00 00 00 00	r0 = r4
    4443:	77 00 00 00 20 00 00 00	r0 >>= 0x20
    4444:	0f 60 00 00 00 00 00 00	r0 += r6
    4445:	bf 06 00 00 00 00 00 00	r6 = r0
    4446:	77 06 00 00 20 00 00 00	r6 >>= 0x20
    4447:	0f 65 00 00 00 00 00 00	r5 += r6
    4448:	2f 23 00 00 00 00 00 00	r3 *= r2
    4449:	67 00 00 00 20 00 00 00	r0 <<= 0x20
    4450:	77 00 00 00 20 00 00 00	r0 >>= 0x20
    4451:	0f 30 00 00 00 00 00 00	r0 += r3
    4452:	bf 02 00 00 00 00 00 00	r2 = r0
    4453:	77 02 00 00 20 00 00 00	r2 >>= 0x20
    4454:	0f 25 00 00 00 00 00 00	r5 += r2
    4455:	7b 51 08 00 00 00 00 00	*(u64 *)(r1 + 0x8) = r5
    4456:	67 00 00 00 20 00 00 00	r0 <<= 0x20
    4457:	67 04 00 00 20 00 00 00	r4 <<= 0x20
    4458:	77 04 00 00 20 00 00 00	r4 >>= 0x20
    4459:	4f 40 00 00 00 00 00 00	r0 |= r4
    4460:	7b 01 00 00 00 00 00 00	*(u64 *)(r1 + 0x0) = r0
    4461:	95 00 00 00 00 00 00 00	exit
